Component: ARM Compiler 5.06 update 7 (build 960) Tool: armlink [4d3601]

==============================================================================

Section Cross References

    main.o(i.AC_1) refers to gpio.o(i.GPIOPinWrite) for GPIOPinWrite
    main.o(i.AC_1) refers to lxy_adc.o(i.ADC_init_SS3) for ADC_init_SS3
    main.o(i.AC_1) refers to lxy_adc.o(i.ADC_SS3_SET) for ADC_SS3_SET
    main.o(i.AC_1) refers to timer.o(i.TimerConfigure) for TimerConfigure
    main.o(i.AC_1) refers to timer.o(i.TimerEnable) for TimerEnable
    main.o(i.AC_1) refers to timer.o(i.TimerControlTrigger) for TimerControlTrigger
    main.o(i.AC_1) refers to adc_1.o(i.ADCSequenceDataGet) for ADCSequenceDataGet
    main.o(i.AC_1) refers to main.o(i.secernprintf) for secernprintf
    main.o(i.AC_1) refers to uc1701.o(i.UC1701Clear) for UC1701Clear
    main.o(i.AC_1) refers to uc1701.o(i.UC1701CharDispaly) for UC1701CharDispaly
    main.o(i.AC_2) refers to gpio.o(i.GPIOPinWrite) for GPIOPinWrite
    main.o(i.AC_2) refers to lxy_adc.o(i.ADC_init_SS3) for ADC_init_SS3
    main.o(i.AC_2) refers to lxy_adc.o(i.ADC_SS3_SET) for ADC_SS3_SET
    main.o(i.AC_2) refers to timer.o(i.TimerConfigure) for TimerConfigure
    main.o(i.AC_2) refers to timer.o(i.TimerEnable) for TimerEnable
    main.o(i.AC_2) refers to timer.o(i.TimerControlTrigger) for TimerControlTrigger
    main.o(i.AC_2) refers to adc_1.o(i.ADCSequenceDataGet) for ADCSequenceDataGet
    main.o(i.AC_2) refers to main.o(i.secernprintf) for secernprintf
    main.o(i.AC_2) refers to uc1701.o(i.UC1701Clear) for UC1701Clear
    main.o(i.AC_2) refers to uc1701.o(i.UC1701CharDispaly) for UC1701CharDispaly
    main.o(i.AC_3) refers to gpio.o(i.GPIOPinWrite) for GPIOPinWrite
    main.o(i.AC_3) refers to lxy_adc.o(i.ADC_init_SS3) for ADC_init_SS3
    main.o(i.AC_3) refers to lxy_adc.o(i.ADC_SS3_SET) for ADC_SS3_SET
    main.o(i.AC_3) refers to timer.o(i.TimerConfigure) for TimerConfigure
    main.o(i.AC_3) refers to timer.o(i.TimerEnable) for TimerEnable
    main.o(i.AC_3) refers to timer.o(i.TimerControlTrigger) for TimerControlTrigger
    main.o(i.AC_3) refers to adc_1.o(i.ADCSequenceDataGet) for ADCSequenceDataGet
    main.o(i.AC_3) refers to main.o(i.secernprintf) for secernprintf
    main.o(i.AC_3) refers to uc1701.o(i.UC1701Clear) for UC1701Clear
    main.o(i.AC_3) refers to uc1701.o(i.UC1701CharDispaly) for UC1701CharDispaly
    main.o(i.DC_1) refers to lxy_adc.o(i.ADC_init_SS3) for ADC_init_SS3
    main.o(i.DC_1) refers to lxy_adc.o(i.ADC_SS3_SET) for ADC_SS3_SET
    main.o(i.DC_1) refers to timer.o(i.TimerConfigure) for TimerConfigure
    main.o(i.DC_1) refers to timer.o(i.TimerEnable) for TimerEnable
    main.o(i.DC_1) refers to timer.o(i.TimerControlTrigger) for TimerControlTrigger
    main.o(i.DC_1) refers to adc_1.o(i.ADCSequenceDataGet) for ADCSequenceDataGet
    main.o(i.DC_1) refers to sysctl.o(i.SysCtlPeripheralPowerOff) for SysCtlPeripheralPowerOff
    main.o(i.DC_1) refers to dflti.o(.text) for __aeabi_i2d
    main.o(i.DC_1) refers to dadd.o(.text) for __aeabi_dadd
    main.o(i.DC_1) refers to ddiv.o(.text) for __aeabi_ddiv
    main.o(i.DC_1) refers to sqrt.o(i.__hardfp_sqrt) for __hardfp_sqrt
    main.o(i.DC_1) refers to dfixi.o(.text) for __aeabi_d2iz
    main.o(i.DC_1) refers to main.o(i.secernprintf) for secernprintf
    main.o(i.DC_1) refers to uc1701.o(i.UC1701Clear) for UC1701Clear
    main.o(i.DC_1) refers to uc1701.o(i.UC1701CharDispaly) for UC1701CharDispaly
    main.o(i.DC_2) refers to lxy_adc.o(i.ADC_init_SS3) for ADC_init_SS3
    main.o(i.DC_2) refers to lxy_adc.o(i.ADC_SS3_SET) for ADC_SS3_SET
    main.o(i.DC_2) refers to timer.o(i.TimerConfigure) for TimerConfigure
    main.o(i.DC_2) refers to timer.o(i.TimerEnable) for TimerEnable
    main.o(i.DC_2) refers to timer.o(i.TimerControlTrigger) for TimerControlTrigger
    main.o(i.DC_2) refers to adc_1.o(i.ADCSequenceDataGet) for ADCSequenceDataGet
    main.o(i.DC_2) refers to sysctl.o(i.SysCtlPeripheralPowerOff) for SysCtlPeripheralPowerOff
    main.o(i.DC_2) refers to dflti.o(.text) for __aeabi_i2d
    main.o(i.DC_2) refers to dadd.o(.text) for __aeabi_dadd
    main.o(i.DC_2) refers to ddiv.o(.text) for __aeabi_ddiv
    main.o(i.DC_2) refers to sqrt.o(i.__hardfp_sqrt) for __hardfp_sqrt
    main.o(i.DC_2) refers to dfixi.o(.text) for __aeabi_d2iz
    main.o(i.DC_2) refers to main.o(i.secernprintf) for secernprintf
    main.o(i.DC_2) refers to uc1701.o(i.UC1701Clear) for UC1701Clear
    main.o(i.DC_2) refers to uc1701.o(i.UC1701CharDispaly) for UC1701CharDispaly
    main.o(i.DC_3) refers to lxy_adc.o(i.ADC_init_SS3) for ADC_init_SS3
    main.o(i.DC_3) refers to lxy_adc.o(i.ADC_SS3_SET) for ADC_SS3_SET
    main.o(i.DC_3) refers to timer.o(i.TimerConfigure) for TimerConfigure
    main.o(i.DC_3) refers to timer.o(i.TimerEnable) for TimerEnable
    main.o(i.DC_3) refers to timer.o(i.TimerControlTrigger) for TimerControlTrigger
    main.o(i.DC_3) refers to adc_1.o(i.ADCSequenceDataGet) for ADCSequenceDataGet
    main.o(i.DC_3) refers to sysctl.o(i.SysCtlPeripheralPowerOff) for SysCtlPeripheralPowerOff
    main.o(i.DC_3) refers to dflti.o(.text) for __aeabi_i2d
    main.o(i.DC_3) refers to dadd.o(.text) for __aeabi_dadd
    main.o(i.DC_3) refers to dfixi.o(.text) for __aeabi_d2iz
    main.o(i.DC_3) refers to main.o(i.secernprintf) for secernprintf
    main.o(i.DC_3) refers to ddiv.o(.text) for __aeabi_ddiv
    main.o(i.DC_3) refers to cdcmple.o(.text) for __aeabi_cdcmple
    main.o(i.DC_3) refers to uc1701.o(i.UC1701Clear) for UC1701Clear
    main.o(i.DC_3) refers to uc1701.o(i.UC1701CharDispaly) for UC1701CharDispaly
    main.o(i.DC_3) refers to main.o(.data) for i
    main.o(i.R_1) refers to lxy_adc.o(i.ADC_init_SS3) for ADC_init_SS3
    main.o(i.R_1) refers to lxy_adc.o(i.ADC_SS3_SET) for ADC_SS3_SET
    main.o(i.R_1) refers to timer.o(i.TimerConfigure) for TimerConfigure
    main.o(i.R_1) refers to timer.o(i.TimerEnable) for TimerEnable
    main.o(i.R_1) refers to timer.o(i.TimerControlTrigger) for TimerControlTrigger
    main.o(i.R_1) refers to adc_1.o(i.ADCSequenceDataGet) for ADCSequenceDataGet
    main.o(i.R_1) refers to main.o(i.secernprintf) for secernprintf
    main.o(i.R_1) refers to uc1701.o(i.UC1701Clear) for UC1701Clear
    main.o(i.R_1) refers to uc1701.o(i.UC1701CharDispaly) for UC1701CharDispaly
    main.o(i.R_2) refers to lxy_adc.o(i.ADC_init_SS3) for ADC_init_SS3
    main.o(i.R_2) refers to lxy_adc.o(i.ADC_SS3_SET) for ADC_SS3_SET
    main.o(i.R_2) refers to timer.o(i.TimerConfigure) for TimerConfigure
    main.o(i.R_2) refers to timer.o(i.TimerEnable) for TimerEnable
    main.o(i.R_2) refers to timer.o(i.TimerControlTrigger) for TimerControlTrigger
    main.o(i.R_2) refers to adc_1.o(i.ADCSequenceDataGet) for ADCSequenceDataGet
    main.o(i.R_2) refers to main.o(i.secernprintf) for secernprintf
    main.o(i.R_2) refers to uc1701.o(i.UC1701Clear) for UC1701Clear
    main.o(i.R_2) refers to uc1701.o(i.UC1701CharDispaly) for UC1701CharDispaly
    main.o(i.R_3) refers to lxy_adc.o(i.ADC_init_SS3) for ADC_init_SS3
    main.o(i.R_3) refers to lxy_adc.o(i.ADC_SS3_SET) for ADC_SS3_SET
    main.o(i.R_3) refers to timer.o(i.TimerConfigure) for TimerConfigure
    main.o(i.R_3) refers to timer.o(i.TimerEnable) for TimerEnable
    main.o(i.R_3) refers to timer.o(i.TimerControlTrigger) for TimerControlTrigger
    main.o(i.R_3) refers to adc_1.o(i.ADCSequenceDataGet) for ADCSequenceDataGet
    main.o(i.R_3) refers to main.o(i.secernprintf) for secernprintf
    main.o(i.R_3) refers to uc1701.o(i.UC1701Clear) for UC1701Clear
    main.o(i.R_3) refers to uc1701.o(i.UC1701CharDispaly) for UC1701CharDispaly
    main.o(i.down1) refers to gpio.o(i.GPIOIntStatus) for GPIOIntStatus
    main.o(i.down1) refers to gpio.o(i.GPIOIntClear) for GPIOIntClear
    main.o(i.down1) refers to main.o(.data) for key_table
    main.o(i.enter1) refers to gpio.o(i.GPIOIntStatus) for GPIOIntStatus
    main.o(i.enter1) refers to gpio.o(i.GPIOIntClear) for GPIOIntClear
    main.o(i.enter1) refers to main.o(.data) for key_table
    main.o(i.gpioinit) refers to gpio.o(i.GPIOPinTypeGPIOOutput) for GPIOPinTypeGPIOOutput
    main.o(i.init) refers to sysctl.o(i.SysCtlPeripheralEnable) for SysCtlPeripheralEnable
    main.o(i.init) refers to sysctl.o(i.SysCtlPWMClockSet) for SysCtlPWMClockSet
    main.o(i.main) refers to sysctl.o(i.SysCtlClockSet) for SysCtlClockSet
    main.o(i.main) refers to main.o(i.init) for init
    main.o(i.main) refers to key.o(i.key_INT) for key_INT
    main.o(i.main) refers to gpio.o(i.GPIOIntRegister) for GPIOIntRegister
    main.o(i.main) refers to key.o(i.key_enable) for key_enable
    main.o(i.main) refers to uc1701.o(i.UC1701Init) for UC1701Init
    main.o(i.main) refers to lxy_uart.o(i.UART0_INT) for UART0_INT
    main.o(i.main) refers to main.o(i.gpioinit) for gpioinit
    main.o(i.main) refers to gpio.o(i.GPIOPinWrite) for GPIOPinWrite
    main.o(i.main) refers to uc1701.o(i.UC1701Clear) for UC1701Clear
    main.o(i.main) refers to uc1701.o(i.UC1701CharDispaly) for UC1701CharDispaly
    main.o(i.main) refers to main.o(i.AC_1) for AC_1
    main.o(i.main) refers to main.o(i.AC_2) for AC_2
    main.o(i.main) refers to main.o(i.AC_3) for AC_3
    main.o(i.main) refers to main.o(i.DC_1) for DC_1
    main.o(i.main) refers to main.o(i.DC_2) for DC_2
    main.o(i.main) refers to main.o(i.DC_3) for DC_3
    main.o(i.main) refers to main.o(i.R_1) for R_1
    main.o(i.main) refers to main.o(i.R_2) for R_2
    main.o(i.main) refers to main.o(i.R_3) for R_3
    main.o(i.main) refers to sysctl.o(i.SysCtlClockGet) for SysCtlClockGet
    main.o(i.main) refers to sysctl.o(.emb_text) for SysCtlDelay
    main.o(i.main) refers to main.o(i.up1) for up1
    main.o(i.main) refers to main.o(i.down1) for down1
    main.o(i.main) refers to main.o(i.enter1) for enter1
    main.o(i.main) refers to main.o(.data) for i
    main.o(i.secernprintf) refers to printf6.o(i.__0sprintf$6) for __2sprintf
    main.o(i.up1) refers to gpio.o(i.GPIOIntStatus) for GPIOIntStatus
    main.o(i.up1) refers to gpio.o(i.GPIOIntClear) for GPIOIntClear
    main.o(i.up1) refers to main.o(.data) for key_table
    led.o(i.LED_BULE) refers to led.o(i.LED_int) for LED_int
    led.o(i.LED_BULE) refers to gpio.o(i.GPIOPinWrite) for GPIOPinWrite
    led.o(i.LED_GREEN) refers to led.o(i.LED_int) for LED_int
    led.o(i.LED_GREEN) refers to gpio.o(i.GPIOPinWrite) for GPIOPinWrite
    led.o(i.LED_RED) refers to led.o(i.LED_int) for LED_int
    led.o(i.LED_RED) refers to gpio.o(i.GPIOPinWrite) for GPIOPinWrite
    led.o(i.LED_int) refers to sysctl.o(i.SysCtlPeripheralEnable) for SysCtlPeripheralEnable
    led.o(i.LED_int) refers to gpio.o(i.GPIOPinTypeGPIOOutput) for GPIOPinTypeGPIOOutput
    led.o(i.LED_int) refers to gpio.o(i.GPIOPinWrite) for GPIOPinWrite
    key.o(i.key_INT) refers to gpio.o(i.GPIOPinTypeGPIOInput) for GPIOPinTypeGPIOInput
    key.o(i.key_INT) refers to gpio.o(i.GPIOIntTypeSet) for GPIOIntTypeSet
    key.o(i.key_enable) refers to gpio.o(i.GPIOIntEnable) for GPIOIntEnable
    key.o(i.key_enable) refers to interrupt.o(i.IntEnable) for IntEnable
    key.o(i.key_enable) refers to interrupt.o(i.IntMasterEnable) for IntMasterEnable
    time0.o(i.TIME_INT) refers to interrupt.o(i.IntPrioritySet) for IntPrioritySet
    time0.o(i.TIME_INT) refers to sysctl.o(i.SysCtlPeripheralEnable) for SysCtlPeripheralEnable
    time0.o(i.TIME_INT) refers to timer.o(i.TimerConfigure) for TimerConfigure
    time0.o(i.TIME_INT) refers to interrupt.o(i.IntEnable) for IntEnable
    time0.o(i.TIME_INT) refers to timer.o(i.TimerIntEnable) for TimerIntEnable
    time0.o(i.TIME_INT) refers to interrupt.o(i.IntMasterEnable) for IntMasterEnable
    time0.o(i.TIME_INT) refers to timer.o(i.TimerEnable) for TimerEnable
    lxy_adc.o(i.ADC_SS0_INT) refers to adc_1.o(i.ADCIntEnable) for ADCIntEnable
    lxy_adc.o(i.ADC_SS0_INT) refers to interrupt.o(i.IntPrioritySet) for IntPrioritySet
    lxy_adc.o(i.ADC_SS0_INT) refers to interrupt.o(i.IntEnable) for IntEnable
    lxy_adc.o(i.ADC_SS0_INT) refers to interrupt.o(i.IntMasterEnable) for IntMasterEnable
    lxy_adc.o(i.ADC_SS0_SET) refers to adc_1.o(i.ADCSequenceConfigure) for ADCSequenceConfigure
    lxy_adc.o(i.ADC_SS0_SET) refers to adc_1.o(i.ADCSequenceStepConfigure) for ADCSequenceStepConfigure
    lxy_adc.o(i.ADC_SS1_INT) refers to adc_1.o(i.ADCIntEnable) for ADCIntEnable
    lxy_adc.o(i.ADC_SS1_INT) refers to interrupt.o(i.IntPrioritySet) for IntPrioritySet
    lxy_adc.o(i.ADC_SS1_INT) refers to interrupt.o(i.IntEnable) for IntEnable
    lxy_adc.o(i.ADC_SS1_INT) refers to interrupt.o(i.IntMasterEnable) for IntMasterEnable
    lxy_adc.o(i.ADC_SS1_SET) refers to adc_1.o(i.ADCSequenceConfigure) for ADCSequenceConfigure
    lxy_adc.o(i.ADC_SS1_SET) refers to adc_1.o(i.ADCSequenceStepConfigure) for ADCSequenceStepConfigure
    lxy_adc.o(i.ADC_SS2_INT) refers to adc_1.o(i.ADCIntEnable) for ADCIntEnable
    lxy_adc.o(i.ADC_SS2_INT) refers to interrupt.o(i.IntPrioritySet) for IntPrioritySet
    lxy_adc.o(i.ADC_SS2_INT) refers to interrupt.o(i.IntEnable) for IntEnable
    lxy_adc.o(i.ADC_SS2_INT) refers to interrupt.o(i.IntMasterEnable) for IntMasterEnable
    lxy_adc.o(i.ADC_SS2_SET) refers to adc_1.o(i.ADCSequenceConfigure) for ADCSequenceConfigure
    lxy_adc.o(i.ADC_SS2_SET) refers to adc_1.o(i.ADCSequenceStepConfigure) for ADCSequenceStepConfigure
    lxy_adc.o(i.ADC_SS3_INT) refers to adc_1.o(i.ADCIntEnable) for ADCIntEnable
    lxy_adc.o(i.ADC_SS3_INT) refers to interrupt.o(i.IntPrioritySet) for IntPrioritySet
    lxy_adc.o(i.ADC_SS3_INT) refers to interrupt.o(i.IntEnable) for IntEnable
    lxy_adc.o(i.ADC_SS3_INT) refers to interrupt.o(i.IntMasterEnable) for IntMasterEnable
    lxy_adc.o(i.ADC_SS3_SET) refers to adc_1.o(i.ADCSequenceConfigure) for ADCSequenceConfigure
    lxy_adc.o(i.ADC_SS3_SET) refers to adc_1.o(i.ADCSequenceStepConfigure) for ADCSequenceStepConfigure
    lxy_adc.o(i.ADC_init_SS0) refers to sysctl.o(i.SysCtlPeripheralEnable) for SysCtlPeripheralEnable
    lxy_adc.o(i.ADC_init_SS0) refers to gpio.o(i.GPIOPinTypeADC) for GPIOPinTypeADC
    lxy_adc.o(i.ADC_init_SS0) refers to adc_1.o(i.ADCSequenceEnable) for ADCSequenceEnable
    lxy_adc.o(i.ADC_init_SS1) refers to sysctl.o(i.SysCtlPeripheralEnable) for SysCtlPeripheralEnable
    lxy_adc.o(i.ADC_init_SS1) refers to gpio.o(i.GPIOPinTypeADC) for GPIOPinTypeADC
    lxy_adc.o(i.ADC_init_SS1) refers to adc_1.o(i.ADCSequenceEnable) for ADCSequenceEnable
    lxy_adc.o(i.ADC_init_SS2) refers to sysctl.o(i.SysCtlPeripheralEnable) for SysCtlPeripheralEnable
    lxy_adc.o(i.ADC_init_SS2) refers to gpio.o(i.GPIOPinTypeADC) for GPIOPinTypeADC
    lxy_adc.o(i.ADC_init_SS2) refers to adc_1.o(i.ADCSequenceEnable) for ADCSequenceEnable
    lxy_adc.o(i.ADC_init_SS3) refers to sysctl.o(i.SysCtlPeripheralEnable) for SysCtlPeripheralEnable
    lxy_adc.o(i.ADC_init_SS3) refers to gpio.o(i.GPIOPinTypeADC) for GPIOPinTypeADC
    lxy_adc.o(i.ADC_init_SS3) refers to adc_1.o(i.ADCSequenceEnable) for ADCSequenceEnable
    lxy_pwm.o(i.PWM_duty) refers to pwm.o(i.PWMGenPeriodGet) for PWMGenPeriodGet
    lxy_pwm.o(i.PWM_duty) refers to pwm.o(i.PWMPulseWidthSet) for PWMPulseWidthSet
    lxy_pwm.o(i.PWM_duty) refers to pwm.o(i.PWMOutputState) for PWMOutputState
    lxy_pwm.o(i.PWM_duty) refers to pwm.o(i.PWMGenEnable) for PWMGenEnable
    lxy_pwm.o(i.PWM_init) refers to sysctl.o(i.SysCtlClockSet) for SysCtlClockSet
    lxy_pwm.o(i.PWM_init) refers to sysctl.o(i.SysCtlPWMClockSet) for SysCtlPWMClockSet
    lxy_pwm.o(i.PWM_init) refers to sysctl.o(i.SysCtlPeripheralEnable) for SysCtlPeripheralEnable
    lxy_pwm.o(i.PWM_init) refers to gpio.o(i.GPIOPinTypePWM) for GPIOPinTypePWM
    lxy_pwm.o(i.PWM_init) refers to gpio.o(i.GPIOPinConfigure) for GPIOPinConfigure
    lxy_pwm.o(i.PWM_init) refers to pwm.o(i.PWMGenConfigure) for PWMGenConfigure
    lxy_pwm.o(i.PWM_init) refers to pwm.o(i.PWMGenPeriodSet) for PWMGenPeriodSet
    lxy_pwm.o(i.PWM_init) refers to pwm.o(i.PWMGenPeriodGet) for PWMGenPeriodGet
    lxy_pwm.o(i.PWM_init) refers to dfltui.o(.text) for __aeabi_ui2d
    lxy_pwm.o(i.PWM_init) refers to dmul.o(.text) for __aeabi_dmul
    lxy_pwm.o(i.PWM_init) refers to dadd.o(.text) for __aeabi_dsub
    lxy_pwm.o(i.PWM_init) refers to dfixui.o(.text) for __aeabi_d2uiz
    lxy_pwm.o(i.PWM_init) refers to pwm.o(i.PWMPulseWidthSet) for PWMPulseWidthSet
    lxy_pwm.o(i.PWM_init) refers to pwm.o(i.PWMOutputState) for PWMOutputState
    lxy_pwm.o(i.PWM_init) refers to pwm.o(i.PWMGenEnable) for PWMGenEnable
    lxy_uart.o(i.UART0_INT) refers to sysctl.o(i.SysCtlPeripheralEnable) for SysCtlPeripheralEnable
    lxy_uart.o(i.UART0_INT) refers to gpio.o(i.GPIOPinConfigure) for GPIOPinConfigure
    lxy_uart.o(i.UART0_INT) refers to gpio.o(i.GPIOPinTypeUART) for GPIOPinTypeUART
    lxy_uart.o(i.UART0_INT) refers to sysctl.o(i.SysCtlClockGet) for SysCtlClockGet
    lxy_uart.o(i.UART0_INT) refers to uartstdio.o(i.UARTStdioConfig) for UARTStdioConfig
    lxy_uart.o(i.UART0_enable) refers to uart_1.o(i.UARTIntEnable) for UARTIntEnable
    lxy_uart.o(i.UART0_enable) refers to interrupt.o(i.IntPrioritySet) for IntPrioritySet
    lxy_uart.o(i.UART0_enable) refers to interrupt.o(i.IntEnable) for IntEnable
    lxy_uart.o(i.UART0_enable) refers to interrupt.o(i.IntMasterEnable) for IntMasterEnable
    lxy_uart.o(i.UART0_enable) refers to uart_1.o(i.UARTEnable) for UARTEnable
    adc_1.o(i.ADCIntRegister) refers to adc_1.o(i._ADCIntNumberGet) for _ADCIntNumberGet
    adc_1.o(i.ADCIntRegister) refers to interrupt.o(i.IntRegister) for IntRegister
    adc_1.o(i.ADCIntRegister) refers to interrupt.o(i.IntEnable) for IntEnable
    adc_1.o(i.ADCIntUnregister) refers to adc_1.o(i._ADCIntNumberGet) for _ADCIntNumberGet
    adc_1.o(i.ADCIntUnregister) refers to interrupt.o(i.IntDisable) for IntDisable
    adc_1.o(i.ADCIntUnregister) refers to interrupt.o(i.IntUnregister) for IntUnregister
    adc_1.o(i.ADCSoftwareOversampleConfigure) refers to adc_1.o(.data) for g_pui8OversampleFactor
    adc_1.o(i.ADCSoftwareOversampleDataGet) refers to adc_1.o(.data) for g_pui8OversampleFactor
    adc_1.o(i.ADCSoftwareOversampleStepConfigure) refers to adc_1.o(.data) for g_pui8OversampleFactor
    aes.o(i.AESDataAuth) refers to aes.o(i.AESLengthSet) for AESLengthSet
    aes.o(i.AESDataAuth) refers to aes.o(i.AESDataWrite) for AESDataWrite
    aes.o(i.AESDataAuth) refers to aes.o(i.AESTagRead) for AESTagRead
    aes.o(i.AESDataProcess) refers to aes.o(i.AESLengthSet) for AESLengthSet
    aes.o(i.AESDataProcess) refers to aes.o(i.AESDataWrite) for AESDataWrite
    aes.o(i.AESDataProcess) refers to aes.o(i.AESDataRead) for AESDataRead
    aes.o(i.AESDataProcessAuth) refers to aes.o(i.AESLengthSet) for AESLengthSet
    aes.o(i.AESDataProcessAuth) refers to aes.o(i.AESAuthLengthSet) for AESAuthLengthSet
    aes.o(i.AESDataProcessAuth) refers to aes.o(i.AESDataWrite) for AESDataWrite
    aes.o(i.AESDataProcessAuth) refers to aes.o(i.AESDataRead) for AESDataRead
    aes.o(i.AESDataProcessAuth) refers to aes.o(i.AESTagRead) for AESTagRead
    aes.o(i.AESIntRegister) refers to interrupt.o(i.IntRegister) for IntRegister
    aes.o(i.AESIntRegister) refers to interrupt.o(i.IntEnable) for IntEnable
    aes.o(i.AESIntUnregister) refers to interrupt.o(i.IntDisable) for IntDisable
    aes.o(i.AESIntUnregister) refers to interrupt.o(i.IntUnregister) for IntUnregister
    can.o(i.CANBitRateSet) refers to can.o(.constdata) for g_ui16CANBitValues
    can.o(i.CANIntRegister) refers to can.o(i._CANIntNumberGet) for _CANIntNumberGet
    can.o(i.CANIntRegister) refers to interrupt.o(i.IntRegister) for IntRegister
    can.o(i.CANIntRegister) refers to interrupt.o(i.IntEnable) for IntEnable
    can.o(i.CANIntUnregister) refers to can.o(i._CANIntNumberGet) for _CANIntNumberGet
    can.o(i.CANIntUnregister) refers to interrupt.o(i.IntDisable) for IntDisable
    can.o(i.CANIntUnregister) refers to interrupt.o(i.IntUnregister) for IntUnregister
    can.o(i.CANMessageGet) refers to can.o(i._CANDataRegRead) for _CANDataRegRead
    can.o(i.CANMessageSet) refers to can.o(i._CANDataRegWrite) for _CANDataRegWrite
    comp.o(i.ComparatorIntRegister) refers to interrupt.o(i.IntRegister) for IntRegister
    comp.o(i.ComparatorIntRegister) refers to interrupt.o(i.IntEnable) for IntEnable
    comp.o(i.ComparatorIntUnregister) refers to interrupt.o(i.IntDisable) for IntDisable
    comp.o(i.ComparatorIntUnregister) refers to interrupt.o(i.IntUnregister) for IntUnregister
    crc.o(i.CRCDataProcess) refers to crc.o(i.CRCResultRead) for CRCResultRead
    des.o(i.DESDataProcess) refers to des.o(i.DESDataWriteNonBlocking) for DESDataWriteNonBlocking
    des.o(i.DESDataProcess) refers to des.o(i.DESDataReadNonBlocking) for DESDataReadNonBlocking
    des.o(i.DESIntRegister) refers to interrupt.o(i.IntRegister) for IntRegister
    des.o(i.DESIntRegister) refers to interrupt.o(i.IntEnable) for IntEnable
    des.o(i.DESIntUnregister) refers to interrupt.o(i.IntDisable) for IntDisable
    des.o(i.DESIntUnregister) refers to interrupt.o(i.IntUnregister) for IntUnregister
    eeprom.o(i.EEPROMInit) refers to sysctl.o(.emb_text) for SysCtlDelay
    eeprom.o(i.EEPROMInit) refers to eeprom.o(i._EEPROMWaitForDone) for _EEPROMWaitForDone
    eeprom.o(i.EEPROMInit) refers to sysctl.o(i.SysCtlPeripheralReset) for SysCtlPeripheralReset
    eeprom.o(i.EEPROMIntClear) refers to eeprom.o(i._EEPROMSectorMaskClear) for _EEPROMSectorMaskClear
    eeprom.o(i.EEPROMMassErase) refers to eeprom.o(i._EEPROMSectorMaskClear) for _EEPROMSectorMaskClear
    eeprom.o(i.EEPROMMassErase) refers to eeprom.o(i._EEPROMWaitForDone) for _EEPROMWaitForDone
    eeprom.o(i.EEPROMMassErase) refers to sysctl.o(i.SysCtlPeripheralReset) for SysCtlPeripheralReset
    eeprom.o(i.EEPROMMassErase) refers to sysctl.o(.emb_text) for SysCtlDelay
    eeprom.o(i.EEPROMProgram) refers to eeprom.o(i._EEPROMSectorMaskSet) for _EEPROMSectorMaskSet
    eeprom.o(i.EEPROMProgram) refers to sysctl.o(.emb_text) for SysCtlDelay
    eeprom.o(i.EEPROMProgram) refers to eeprom.o(i._EEPROMSectorMaskClear) for _EEPROMSectorMaskClear
    eeprom.o(i.EEPROMProgramNonBlocking) refers to eeprom.o(i._EEPROMSectorMaskSet) for _EEPROMSectorMaskSet
    eeprom.o(i._EEPROMSectorMaskClear) refers to sysctl.o(.emb_text) for SysCtlDelay
    eeprom.o(i._EEPROMSectorMaskSet) refers to sysctl.o(.emb_text) for SysCtlDelay
    emac.o(i.EMACHashFilterBitCalculate) refers to sw_crc.o(i.Crc32) for Crc32
    emac.o(i.EMACInit) refers to emac.o(.constdata) for g_pi16MIIClockDiv
    emac.o(i.EMACIntRegister) refers to interrupt.o(i.IntRegister) for IntRegister
    emac.o(i.EMACIntRegister) refers to interrupt.o(i.IntEnable) for IntEnable
    emac.o(i.EMACIntUnregister) refers to interrupt.o(i.IntDisable) for IntDisable
    emac.o(i.EMACIntUnregister) refers to interrupt.o(i.IntUnregister) for IntUnregister
    emac.o(i.EMACPHYConfigSet) refers to sysctl.o(i.SysCtlPeripheralReset) for SysCtlPeripheralReset
    emac.o(i.EMACPHYConfigSet) refers to sysctl.o(i.SysCtlPeripheralReady) for SysCtlPeripheralReady
    emac.o(i.EMACPHYConfigSet) refers to sysctl.o(.emb_text) for SysCtlDelay
    emac.o(i.EMACPHYConfigSet) refers to emac.o(i.EMACReset) for EMACReset
    emac.o(i.EMACPHYExtendedRead) refers to emac.o(i.EMACPHYWrite) for EMACPHYWrite
    emac.o(i.EMACPHYExtendedRead) refers to emac.o(i.EMACPHYRead) for EMACPHYRead
    emac.o(i.EMACPHYExtendedWrite) refers to emac.o(i.EMACPHYWrite) for EMACPHYWrite
    emac.o(i.EMACPHYMMDRead) refers to emac.o(i.EMACPHYWrite) for EMACPHYWrite
    emac.o(i.EMACPHYMMDRead) refers to emac.o(i.EMACPHYRead) for EMACPHYRead
    emac.o(i.EMACPHYMMDWrite) refers to emac.o(i.EMACPHYWrite) for EMACPHYWrite
    emac.o(i.EMACPHYPowerOff) refers to emac.o(i.EMACPHYRead) for EMACPHYRead
    emac.o(i.EMACPHYPowerOff) refers to emac.o(i.EMACPHYWrite) for EMACPHYWrite
    emac.o(i.EMACPHYPowerOn) refers to emac.o(i.EMACPHYRead) for EMACPHYRead
    emac.o(i.EMACPHYPowerOn) refers to emac.o(i.EMACPHYWrite) for EMACPHYWrite
    emac.o(i.EMACVLANHashFilterBitCalculate) refers to sw_crc.o(i.Crc32) for Crc32
    epi.o(i.EPIIntRegister) refers to epi.o(i._EPIIntNumberGet) for _EPIIntNumberGet
    epi.o(i.EPIIntRegister) refers to interrupt.o(i.IntRegister) for IntRegister
    epi.o(i.EPIIntRegister) refers to interrupt.o(i.IntEnable) for IntEnable
    epi.o(i.EPIIntUnregister) refers to epi.o(i._EPIIntNumberGet) for _EPIIntNumberGet
    epi.o(i.EPIIntUnregister) refers to interrupt.o(i.IntDisable) for IntDisable
    epi.o(i.EPIIntUnregister) refers to interrupt.o(i.IntUnregister) for IntUnregister
    flash.o(i.FlashIntRegister) refers to interrupt.o(i.IntRegister) for IntRegister
    flash.o(i.FlashIntRegister) refers to interrupt.o(i.IntEnable) for IntEnable
    flash.o(i.FlashIntUnregister) refers to interrupt.o(i.IntDisable) for IntDisable
    flash.o(i.FlashIntUnregister) refers to interrupt.o(i.IntUnregister) for IntUnregister
    flash.o(i.FlashProtectGet) refers to flash.o(.constdata) for g_pui32FMPRERegs
    flash.o(i.FlashProtectSet) refers to flash.o(.constdata) for g_pui32FMPRERegs
    gpio.o(i.GPIOIntRegister) refers to gpio.o(i._GPIOIntNumberGet) for _GPIOIntNumberGet
    gpio.o(i.GPIOIntRegister) refers to interrupt.o(i.IntRegister) for IntRegister
    gpio.o(i.GPIOIntRegister) refers to interrupt.o(i.IntEnable) for IntEnable
    gpio.o(i.GPIOIntRegisterPin) refers to gpio.o(i._GPIOIntNumberGet) for _GPIOIntNumberGet
    gpio.o(i.GPIOIntRegisterPin) refers to interrupt.o(i.IntRegister) for IntRegister
    gpio.o(i.GPIOIntRegisterPin) refers to interrupt.o(i.IntEnable) for IntEnable
    gpio.o(i.GPIOIntUnregister) refers to gpio.o(i._GPIOIntNumberGet) for _GPIOIntNumberGet
    gpio.o(i.GPIOIntUnregister) refers to interrupt.o(i.IntDisable) for IntDisable
    gpio.o(i.GPIOIntUnregister) refers to interrupt.o(i.IntUnregister) for IntUnregister
    gpio.o(i.GPIOIntUnregisterPin) refers to gpio.o(i._GPIOIntNumberGet) for _GPIOIntNumberGet
    gpio.o(i.GPIOIntUnregisterPin) refers to interrupt.o(i.IntDisable) for IntDisable
    gpio.o(i.GPIOIntUnregisterPin) refers to interrupt.o(i.IntUnregister) for IntUnregister
    gpio.o(i.GPIOPinConfigure) refers to gpio.o(.constdata) for g_pui32GPIOBaseAddrs
    gpio.o(i.GPIOPinTypeADC) refers to gpio.o(i.GPIODirModeSet) for GPIODirModeSet
    gpio.o(i.GPIOPinTypeADC) refers to gpio.o(i.GPIOPadConfigSet) for GPIOPadConfigSet
    gpio.o(i.GPIOPinTypeCAN) refers to gpio.o(i.GPIODirModeSet) for GPIODirModeSet
    gpio.o(i.GPIOPinTypeCAN) refers to gpio.o(i.GPIOPadConfigSet) for GPIOPadConfigSet
    gpio.o(i.GPIOPinTypeComparator) refers to gpio.o(i.GPIODirModeSet) for GPIODirModeSet
    gpio.o(i.GPIOPinTypeComparator) refers to gpio.o(i.GPIOPadConfigSet) for GPIOPadConfigSet
    gpio.o(i.GPIOPinTypeComparatorOutput) refers to gpio.o(i.GPIODirModeSet) for GPIODirModeSet
    gpio.o(i.GPIOPinTypeComparatorOutput) refers to gpio.o(i.GPIOPadConfigSet) for GPIOPadConfigSet
    gpio.o(i.GPIOPinTypeDIVSCLK) refers to gpio.o(i.GPIODirModeSet) for GPIODirModeSet
    gpio.o(i.GPIOPinTypeDIVSCLK) refers to gpio.o(i.GPIOPadConfigSet) for GPIOPadConfigSet
    gpio.o(i.GPIOPinTypeEPI) refers to gpio.o(i.GPIODirModeSet) for GPIODirModeSet
    gpio.o(i.GPIOPinTypeEPI) refers to gpio.o(i.GPIOPadConfigSet) for GPIOPadConfigSet
    gpio.o(i.GPIOPinTypeEthernetLED) refers to gpio.o(i.GPIODirModeSet) for GPIODirModeSet
    gpio.o(i.GPIOPinTypeEthernetLED) refers to gpio.o(i.GPIOPadConfigSet) for GPIOPadConfigSet
    gpio.o(i.GPIOPinTypeEthernetMII) refers to gpio.o(i.GPIODirModeSet) for GPIODirModeSet
    gpio.o(i.GPIOPinTypeEthernetMII) refers to gpio.o(i.GPIOPadConfigSet) for GPIOPadConfigSet
    gpio.o(i.GPIOPinTypeGPIOInput) refers to gpio.o(i.GPIODirModeSet) for GPIODirModeSet
    gpio.o(i.GPIOPinTypeGPIOInput) refers to gpio.o(i.GPIOPadConfigSet) for GPIOPadConfigSet
    gpio.o(i.GPIOPinTypeGPIOOutput) refers to gpio.o(i.GPIOPadConfigSet) for GPIOPadConfigSet
    gpio.o(i.GPIOPinTypeGPIOOutput) refers to gpio.o(i.GPIODirModeSet) for GPIODirModeSet
    gpio.o(i.GPIOPinTypeGPIOOutputOD) refers to gpio.o(i.GPIOPadConfigSet) for GPIOPadConfigSet
    gpio.o(i.GPIOPinTypeGPIOOutputOD) refers to gpio.o(i.GPIODirModeSet) for GPIODirModeSet
    gpio.o(i.GPIOPinTypeHibernateRTCCLK) refers to gpio.o(i.GPIODirModeSet) for GPIODirModeSet
    gpio.o(i.GPIOPinTypeHibernateRTCCLK) refers to gpio.o(i.GPIOPadConfigSet) for GPIOPadConfigSet
    gpio.o(i.GPIOPinTypeI2C) refers to gpio.o(i.GPIODirModeSet) for GPIODirModeSet
    gpio.o(i.GPIOPinTypeI2C) refers to gpio.o(i.GPIOPadConfigSet) for GPIOPadConfigSet
    gpio.o(i.GPIOPinTypeI2CSCL) refers to gpio.o(i.GPIODirModeSet) for GPIODirModeSet
    gpio.o(i.GPIOPinTypeI2CSCL) refers to gpio.o(i.GPIOPadConfigSet) for GPIOPadConfigSet
    gpio.o(i.GPIOPinTypeLCD) refers to gpio.o(i.GPIODirModeSet) for GPIODirModeSet
    gpio.o(i.GPIOPinTypeLCD) refers to gpio.o(i.GPIOPadConfigSet) for GPIOPadConfigSet
    gpio.o(i.GPIOPinTypeOneWire) refers to gpio.o(i.GPIODirModeSet) for GPIODirModeSet
    gpio.o(i.GPIOPinTypeOneWire) refers to gpio.o(i.GPIOPadConfigSet) for GPIOPadConfigSet
    gpio.o(i.GPIOPinTypePWM) refers to gpio.o(i.GPIODirModeSet) for GPIODirModeSet
    gpio.o(i.GPIOPinTypePWM) refers to gpio.o(i.GPIOPadConfigSet) for GPIOPadConfigSet
    gpio.o(i.GPIOPinTypeQEI) refers to gpio.o(i.GPIODirModeSet) for GPIODirModeSet
    gpio.o(i.GPIOPinTypeQEI) refers to gpio.o(i.GPIOPadConfigSet) for GPIOPadConfigSet
    gpio.o(i.GPIOPinTypeSSI) refers to gpio.o(i.GPIODirModeSet) for GPIODirModeSet
    gpio.o(i.GPIOPinTypeSSI) refers to gpio.o(i.GPIOPadConfigSet) for GPIOPadConfigSet
    gpio.o(i.GPIOPinTypeTimer) refers to gpio.o(i.GPIODirModeSet) for GPIODirModeSet
    gpio.o(i.GPIOPinTypeTimer) refers to gpio.o(i.GPIOPadConfigSet) for GPIOPadConfigSet
    gpio.o(i.GPIOPinTypeTrace) refers to gpio.o(i.GPIODirModeSet) for GPIODirModeSet
    gpio.o(i.GPIOPinTypeTrace) refers to gpio.o(i.GPIOPadConfigSet) for GPIOPadConfigSet
    gpio.o(i.GPIOPinTypeUART) refers to gpio.o(i.GPIODirModeSet) for GPIODirModeSet
    gpio.o(i.GPIOPinTypeUART) refers to gpio.o(i.GPIOPadConfigSet) for GPIOPadConfigSet
    gpio.o(i.GPIOPinTypeUSBAnalog) refers to gpio.o(i.GPIODirModeSet) for GPIODirModeSet
    gpio.o(i.GPIOPinTypeUSBAnalog) refers to gpio.o(i.GPIOPadConfigSet) for GPIOPadConfigSet
    gpio.o(i.GPIOPinTypeUSBDigital) refers to gpio.o(i.GPIODirModeSet) for GPIODirModeSet
    gpio.o(i.GPIOPinTypeUSBDigital) refers to gpio.o(i.GPIOPadConfigSet) for GPIOPadConfigSet
    gpio.o(i.GPIOPinTypeWakeHigh) refers to gpio.o(i.GPIODirModeSet) for GPIODirModeSet
    gpio.o(i.GPIOPinTypeWakeHigh) refers to gpio.o(i.GPIOPadConfigSet) for GPIOPadConfigSet
    gpio.o(i.GPIOPinTypeWakeLow) refers to gpio.o(i.GPIODirModeSet) for GPIODirModeSet
    gpio.o(i.GPIOPinTypeWakeLow) refers to gpio.o(i.GPIOPadConfigSet) for GPIOPadConfigSet
    gpio.o(i._GPIOIntNumberGet) refers to gpio.o(.constdata) for g_ppui32GPIOIntMapBlizzard
    hibernate.o(i.HibernateBatCheckStart) refers to hibernate.o(i._HibernateWriteComplete) for _HibernateWriteComplete
    hibernate.o(i.HibernateCalendarMatchSet) refers to hibernate.o(i._HibernateCalendarSet) for _HibernateCalendarSet
    hibernate.o(i.HibernateCalendarSet) refers to hibernate.o(i._HibernateCalendarSet) for _HibernateCalendarSet
    hibernate.o(i.HibernateClockConfig) refers to hibernate.o(i._HibernateWriteComplete) for _HibernateWriteComplete
    hibernate.o(i.HibernateCounterMode) refers to hibernate.o(i._HibernateWriteComplete) for _HibernateWriteComplete
    hibernate.o(i.HibernateDataSet) refers to hibernate.o(i._HibernateWriteComplete) for _HibernateWriteComplete
    hibernate.o(i.HibernateDisable) refers to hibernate.o(i._HibernateWriteComplete) for _HibernateWriteComplete
    hibernate.o(i.HibernateEnableExpClk) refers to hibernate.o(i._HibernateWriteComplete) for _HibernateWriteComplete
    hibernate.o(i.HibernateGPIORetentionDisable) refers to hibernate.o(i._HibernateWriteComplete) for _HibernateWriteComplete
    hibernate.o(i.HibernateGPIORetentionEnable) refers to hibernate.o(i._HibernateWriteComplete) for _HibernateWriteComplete
    hibernate.o(i.HibernateIntClear) refers to hibernate.o(i._HibernateWriteComplete) for _HibernateWriteComplete
    hibernate.o(i.HibernateIntDisable) refers to hibernate.o(i._HibernateWriteComplete) for _HibernateWriteComplete
    hibernate.o(i.HibernateIntEnable) refers to hibernate.o(i._HibernateWriteComplete) for _HibernateWriteComplete
    hibernate.o(i.HibernateIntRegister) refers to hibernate.o(i._HibernateIntNumberGet) for _HibernateIntNumberGet
    hibernate.o(i.HibernateIntRegister) refers to interrupt.o(i.IntRegister) for IntRegister
    hibernate.o(i.HibernateIntRegister) refers to interrupt.o(i.IntEnable) for IntEnable
    hibernate.o(i.HibernateIntUnregister) refers to hibernate.o(i._HibernateIntNumberGet) for _HibernateIntNumberGet
    hibernate.o(i.HibernateIntUnregister) refers to interrupt.o(i.IntDisable) for IntDisable
    hibernate.o(i.HibernateIntUnregister) refers to interrupt.o(i.IntUnregister) for IntUnregister
    hibernate.o(i.HibernateLowBatSet) refers to hibernate.o(i._HibernateWriteComplete) for _HibernateWriteComplete
    hibernate.o(i.HibernateRTCDisable) refers to hibernate.o(i._HibernateWriteComplete) for _HibernateWriteComplete
    hibernate.o(i.HibernateRTCEnable) refers to hibernate.o(i._HibernateWriteComplete) for _HibernateWriteComplete
    hibernate.o(i.HibernateRTCMatchSet) refers to hibernate.o(i._HibernateWriteComplete) for _HibernateWriteComplete
    hibernate.o(i.HibernateRTCSSMatchSet) refers to hibernate.o(i._HibernateWriteComplete) for _HibernateWriteComplete
    hibernate.o(i.HibernateRTCSet) refers to hibernate.o(i._HibernateWriteComplete) for _HibernateWriteComplete
    hibernate.o(i.HibernateRTCTrimSet) refers to hibernate.o(i._HibernateWriteComplete) for _HibernateWriteComplete
    hibernate.o(i.HibernateRequest) refers to hibernate.o(i._HibernateWriteComplete) for _HibernateWriteComplete
    hibernate.o(i.HibernateTamperDisable) refers to hibernate.o(i._HibernateWriteComplete) for _HibernateWriteComplete
    hibernate.o(i.HibernateTamperEnable) refers to hibernate.o(i._HibernateWriteComplete) for _HibernateWriteComplete
    hibernate.o(i.HibernateTamperEventsClear) refers to hibernate.o(i._HibernateWriteComplete) for _HibernateWriteComplete
    hibernate.o(i.HibernateTamperEventsClearNoLock) refers to hibernate.o(i._HibernateWriteComplete) for _HibernateWriteComplete
    hibernate.o(i.HibernateTamperEventsConfig) refers to hibernate.o(i._HibernateWriteComplete) for _HibernateWriteComplete
    hibernate.o(i.HibernateTamperExtOscRecover) refers to hibernate.o(i._HibernateWriteComplete) for _HibernateWriteComplete
    hibernate.o(i.HibernateTamperExtOscValid) refers to hibernate.o(i.HibernateTamperStatusGet) for HibernateTamperStatusGet
    hibernate.o(i.HibernateTamperIODisable) refers to hibernate.o(i._HibernateWriteComplete) for _HibernateWriteComplete
    hibernate.o(i.HibernateTamperIOEnable) refers to hibernate.o(i._HibernateWriteComplete) for _HibernateWriteComplete
    hibernate.o(i.HibernateTamperLock) refers to hibernate.o(i._HibernateWriteComplete) for _HibernateWriteComplete
    hibernate.o(i.HibernateTamperUnLock) refers to hibernate.o(i._HibernateWriteComplete) for _HibernateWriteComplete
    hibernate.o(i.HibernateWakeSet) refers to hibernate.o(i._HibernateWriteComplete) for _HibernateWriteComplete
    hibernate.o(i._HibernateCalendarSet) refers to hibernate.o(i._HibernateWriteComplete) for _HibernateWriteComplete
    i2c.o(i.I2CIntRegister) refers to i2c.o(i._I2CIntNumberGet) for _I2CIntNumberGet
    i2c.o(i.I2CIntRegister) refers to interrupt.o(i.IntRegister) for IntRegister
    i2c.o(i.I2CIntRegister) refers to interrupt.o(i.IntEnable) for IntEnable
    i2c.o(i.I2CIntUnregister) refers to i2c.o(i._I2CIntNumberGet) for _I2CIntNumberGet
    i2c.o(i.I2CIntUnregister) refers to interrupt.o(i.IntDisable) for IntDisable
    i2c.o(i.I2CIntUnregister) refers to interrupt.o(i.IntUnregister) for IntUnregister
    i2c.o(i.I2CMasterInitExpClk) refers to i2c.o(i.I2CMasterEnable) for I2CMasterEnable
    i2c.o(i.I2CSlaveInit) refers to i2c.o(i.I2CSlaveEnable) for I2CSlaveEnable
    i2c.o(i._I2CIntNumberGet) refers to i2c.o(.constdata) for g_ppui32I2CIntMap
    interrupt.o(i.IntDisable) refers to interrupt.o(.constdata) for g_pui32Dii16Regs
    interrupt.o(i.IntEnable) refers to interrupt.o(.constdata) for g_pui32EnRegs
    interrupt.o(i.IntIsEnabled) refers to interrupt.o(.constdata) for g_pui32EnRegs
    interrupt.o(i.IntMasterDisable) refers to cpu.o(.emb_text) for CPUcpsid
    interrupt.o(i.IntMasterEnable) refers to cpu.o(.emb_text) for CPUcpsie
    interrupt.o(i.IntPendClear) refers to interrupt.o(.constdata) for g_pui32UnpendRegs
    interrupt.o(i.IntPendSet) refers to interrupt.o(.constdata) for g_pui32PendRegs
    interrupt.o(i.IntPriorityGet) refers to interrupt.o(.constdata) for g_pui32Regs
    interrupt.o(i.IntPriorityGroupingGet) refers to interrupt.o(.constdata) for g_pui32Priority
    interrupt.o(i.IntPriorityGroupingSet) refers to interrupt.o(.constdata) for g_pui32Priority
    interrupt.o(i.IntPriorityMaskGet) refers to cpu.o(.emb_text) for CPUbasepriGet
    interrupt.o(i.IntPriorityMaskSet) refers to cpu.o(.emb_text) for CPUbasepriSet
    interrupt.o(i.IntPrioritySet) refers to interrupt.o(.constdata) for g_pui32Regs
    interrupt.o(i.IntRegister) refers to interrupt.o(vtable) for g_pfnRAMVectors
    interrupt.o(i.IntUnregister) refers to interrupt.o(i._IntDefaultHandler) for _IntDefaultHandler
    interrupt.o(i.IntUnregister) refers to interrupt.o(vtable) for g_pfnRAMVectors
    lcd.o(i.LCDClockReset) refers to sysctl.o(.emb_text) for SysCtlDelay
    lcd.o(i.LCDIntRegister) refers to interrupt.o(i.IntRegister) for IntRegister
    lcd.o(i.LCDIntRegister) refers to interrupt.o(i.IntEnable) for IntEnable
    lcd.o(i.LCDIntUnregister) refers to interrupt.o(i.IntDisable) for IntDisable
    lcd.o(i.LCDIntUnregister) refers to interrupt.o(i.IntUnregister) for IntUnregister
    lcd.o(i.LCDRasterEnable) refers to lcd.o(i.LCDClockReset) for LCDClockReset
    mpu.o(i.MPUIntRegister) refers to interrupt.o(i.IntRegister) for IntRegister
    mpu.o(i.MPUIntRegister) refers to interrupt.o(i.IntEnable) for IntEnable
    mpu.o(i.MPUIntUnregister) refers to interrupt.o(i.IntDisable) for IntDisable
    mpu.o(i.MPUIntUnregister) refers to interrupt.o(i.IntUnregister) for IntUnregister
    onewire.o(i.OneWireDMAEnable) refers to sysctl.o(.emb_text) for SysCtlDelay
    onewire.o(i.OneWireIntRegister) refers to onewire.o(i._OneWireIntNumberGet) for _OneWireIntNumberGet
    onewire.o(i.OneWireIntRegister) refers to interrupt.o(i.IntRegister) for IntRegister
    onewire.o(i.OneWireIntRegister) refers to interrupt.o(i.IntEnable) for IntEnable
    onewire.o(i.OneWireIntUnregister) refers to onewire.o(i._OneWireIntNumberGet) for _OneWireIntNumberGet
    onewire.o(i.OneWireIntUnregister) refers to interrupt.o(i.IntDisable) for IntDisable
    onewire.o(i.OneWireIntUnregister) refers to interrupt.o(i.IntUnregister) for IntUnregister
    pwm.o(i.PWMFaultIntRegister) refers to pwm.o(i._PWMFaultIntNumberGet) for _PWMFaultIntNumberGet
    pwm.o(i.PWMFaultIntRegister) refers to interrupt.o(i.IntRegister) for IntRegister
    pwm.o(i.PWMFaultIntRegister) refers to interrupt.o(i.IntEnable) for IntEnable
    pwm.o(i.PWMFaultIntUnregister) refers to pwm.o(i._PWMFaultIntNumberGet) for _PWMFaultIntNumberGet
    pwm.o(i.PWMFaultIntUnregister) refers to interrupt.o(i.IntDisable) for IntDisable
    pwm.o(i.PWMFaultIntUnregister) refers to interrupt.o(i.IntUnregister) for IntUnregister
    pwm.o(i.PWMGenIntRegister) refers to pwm.o(i._PWMGenIntNumberGet) for _PWMGenIntNumberGet
    pwm.o(i.PWMGenIntRegister) refers to interrupt.o(i.IntRegister) for IntRegister
    pwm.o(i.PWMGenIntRegister) refers to interrupt.o(i.IntEnable) for IntEnable
    pwm.o(i.PWMGenIntUnregister) refers to pwm.o(i._PWMGenIntNumberGet) for _PWMGenIntNumberGet
    pwm.o(i.PWMGenIntUnregister) refers to interrupt.o(i.IntDisable) for IntDisable
    pwm.o(i.PWMGenIntUnregister) refers to interrupt.o(i.IntUnregister) for IntUnregister
    qei.o(i.QEIIntRegister) refers to qei.o(i._QEIIntNumberGet) for _QEIIntNumberGet
    qei.o(i.QEIIntRegister) refers to interrupt.o(i.IntRegister) for IntRegister
    qei.o(i.QEIIntRegister) refers to interrupt.o(i.IntEnable) for IntEnable
    qei.o(i.QEIIntUnregister) refers to qei.o(i._QEIIntNumberGet) for _QEIIntNumberGet
    qei.o(i.QEIIntUnregister) refers to interrupt.o(i.IntDisable) for IntDisable
    qei.o(i.QEIIntUnregister) refers to interrupt.o(i.IntUnregister) for IntUnregister
    shamd5.o(i.SHAMD5DataProcess) refers to shamd5.o(i.SHAMD5HashLengthSet) for SHAMD5HashLengthSet
    shamd5.o(i.SHAMD5DataProcess) refers to shamd5.o(i._SHAMD5DataWriteMultiple) for _SHAMD5DataWriteMultiple
    shamd5.o(i.SHAMD5DataProcess) refers to shamd5.o(i.SHAMD5ResultRead) for SHAMD5ResultRead
    shamd5.o(i.SHAMD5HMACProcess) refers to shamd5.o(i.SHAMD5HashLengthSet) for SHAMD5HashLengthSet
    shamd5.o(i.SHAMD5HMACProcess) refers to shamd5.o(i._SHAMD5DataWriteMultiple) for _SHAMD5DataWriteMultiple
    shamd5.o(i.SHAMD5HMACProcess) refers to shamd5.o(i.SHAMD5ResultRead) for SHAMD5ResultRead
    shamd5.o(i.SHAMD5IntRegister) refers to interrupt.o(i.IntRegister) for IntRegister
    shamd5.o(i.SHAMD5IntRegister) refers to interrupt.o(i.IntEnable) for IntEnable
    shamd5.o(i.SHAMD5IntUnregister) refers to interrupt.o(i.IntDisable) for IntDisable
    shamd5.o(i.SHAMD5IntUnregister) refers to interrupt.o(i.IntUnregister) for IntUnregister
    shamd5.o(i._SHAMD5DataWriteMultiple) refers to shamd5.o(i.SHAMD5DataWrite) for SHAMD5DataWrite
    ssi.o(i.SSIIntRegister) refers to ssi.o(i._SSIIntNumberGet) for _SSIIntNumberGet
    ssi.o(i.SSIIntRegister) refers to interrupt.o(i.IntRegister) for IntRegister
    ssi.o(i.SSIIntRegister) refers to interrupt.o(i.IntEnable) for IntEnable
    ssi.o(i.SSIIntUnregister) refers to ssi.o(i._SSIIntNumberGet) for _SSIIntNumberGet
    ssi.o(i.SSIIntUnregister) refers to interrupt.o(i.IntDisable) for IntDisable
    ssi.o(i.SSIIntUnregister) refers to interrupt.o(i.IntUnregister) for IntUnregister
    ssi.o(i._SSIIntNumberGet) refers to ssi.o(.constdata) for g_ppui32SSIIntMap
    sw_crc.o(i.Crc16) refers to sw_crc.o(.constdata) for g_pui16Crc16
    sw_crc.o(i.Crc16Array) refers to sw_crc.o(i.Crc16) for Crc16
    sw_crc.o(i.Crc16Array3) refers to sw_crc.o(.constdata) for g_pui16Crc16
    sw_crc.o(i.Crc32) refers to sw_crc.o(.constdata) for g_pui32Crc32
    sw_crc.o(i.Crc8CCITT) refers to sw_crc.o(.constdata) for g_pui8Crc8CCITT
    sysctl.o(i.SysCtlClockFreqSet) refers to sysctl.o(i._SysCtlMemTimingGet) for _SysCtlMemTimingGet
    sysctl.o(i.SysCtlClockFreqSet) refers to sysctl.o(i._SysCtlFrequencyGet) for _SysCtlFrequencyGet
    sysctl.o(i.SysCtlClockFreqSet) refers to sysctl.o(.constdata) for g_pui32Xtals
    sysctl.o(i.SysCtlClockGet) refers to sysctl.o(.constdata) for g_pui32Xtals
    sysctl.o(i.SysCtlClockSet) refers to sysctl.o(.emb_text) for SysCtlDelay
    sysctl.o(i.SysCtlDeepSleep) refers to cpu.o(.emb_text) for CPUwfi
    sysctl.o(i.SysCtlIntRegister) refers to interrupt.o(i.IntRegister) for IntRegister
    sysctl.o(i.SysCtlIntRegister) refers to interrupt.o(i.IntEnable) for IntEnable
    sysctl.o(i.SysCtlIntUnregister) refers to interrupt.o(i.IntDisable) for IntDisable
    sysctl.o(i.SysCtlIntUnregister) refers to interrupt.o(i.IntUnregister) for IntUnregister
    sysctl.o(i.SysCtlSleep) refers to cpu.o(.emb_text) for CPUwfi
    sysctl.o(i.SysCtlVCOGet) refers to sysctl.o(.constdata) for g_pui32Xtals
    sysctl.o(i._SysCtlMemTimingGet) refers to sysctl.o(.constdata) for g_sXTALtoMEMTIM
    sysexc.o(i.SysExcIntRegister) refers to sysexc.o(i._SysExcIntNumberGet) for _SysExcIntNumberGet
    sysexc.o(i.SysExcIntRegister) refers to interrupt.o(i.IntRegister) for IntRegister
    sysexc.o(i.SysExcIntRegister) refers to interrupt.o(i.IntEnable) for IntEnable
    sysexc.o(i.SysExcIntUnregister) refers to sysexc.o(i._SysExcIntNumberGet) for _SysExcIntNumberGet
    sysexc.o(i.SysExcIntUnregister) refers to interrupt.o(i.IntDisable) for IntDisable
    sysexc.o(i.SysExcIntUnregister) refers to interrupt.o(i.IntUnregister) for IntUnregister
    systick.o(i.SysTickIntRegister) refers to interrupt.o(i.IntRegister) for IntRegister
    systick.o(i.SysTickIntUnregister) refers to interrupt.o(i.IntUnregister) for IntUnregister
    timer.o(i.TimerIntRegister) refers to timer.o(i._TimerIntNumberGet) for _TimerIntNumberGet
    timer.o(i.TimerIntRegister) refers to interrupt.o(i.IntRegister) for IntRegister
    timer.o(i.TimerIntRegister) refers to interrupt.o(i.IntEnable) for IntEnable
    timer.o(i.TimerIntUnregister) refers to timer.o(i._TimerIntNumberGet) for _TimerIntNumberGet
    timer.o(i.TimerIntUnregister) refers to interrupt.o(i.IntDisable) for IntDisable
    timer.o(i.TimerIntUnregister) refers to interrupt.o(i.IntUnregister) for IntUnregister
    timer.o(i._TimerIntNumberGet) refers to timer.o(.constdata) for g_ppui32TimerIntMap
    uart_1.o(i.UARTConfigSetExpClk) refers to uart_1.o(i.UARTDisable) for UARTDisable
    uart_1.o(i.UARTConfigSetExpClk) refers to uart_1.o(i.UARTEnable) for UARTEnable
    uart_1.o(i.UARTIntRegister) refers to uart_1.o(i._UARTIntNumberGet) for _UARTIntNumberGet
    uart_1.o(i.UARTIntRegister) refers to interrupt.o(i.IntRegister) for IntRegister
    uart_1.o(i.UARTIntRegister) refers to interrupt.o(i.IntEnable) for IntEnable
    uart_1.o(i.UARTIntUnregister) refers to uart_1.o(i._UARTIntNumberGet) for _UARTIntNumberGet
    uart_1.o(i.UARTIntUnregister) refers to interrupt.o(i.IntDisable) for IntDisable
    uart_1.o(i.UARTIntUnregister) refers to interrupt.o(i.IntUnregister) for IntUnregister
    uart_1.o(i._UARTIntNumberGet) refers to uart_1.o(.constdata) for g_ppui32UARTIntMap
    udma.o(i.uDMAIntRegister) refers to interrupt.o(i.IntRegister) for IntRegister
    udma.o(i.uDMAIntRegister) refers to interrupt.o(i.IntEnable) for IntEnable
    udma.o(i.uDMAIntUnregister) refers to interrupt.o(i.IntDisable) for IntDisable
    udma.o(i.uDMAIntUnregister) refers to interrupt.o(i.IntUnregister) for IntUnregister
    usb.o(i.USBFIFOConfigGet) refers to usb.o(i._USBIndexRead) for _USBIndexRead
    usb.o(i.USBFIFOConfigSet) refers to usb.o(i._USBIndexWrite) for _USBIndexWrite
    usb.o(i.USBIntRegister) refers to usb.o(i._USBIntNumberGet) for _USBIntNumberGet
    usb.o(i.USBIntRegister) refers to interrupt.o(i.IntRegister) for IntRegister
    usb.o(i.USBIntRegister) refers to interrupt.o(i.IntEnable) for IntEnable
    usb.o(i.USBIntUnregister) refers to usb.o(i._USBIntNumberGet) for _USBIntNumberGet
    usb.o(i.USBIntUnregister) refers to interrupt.o(i.IntDisable) for IntDisable
    usb.o(i.USBIntUnregister) refers to interrupt.o(i.IntUnregister) for IntUnregister
    watchdog.o(i.WatchdogIntRegister) refers to interrupt.o(i.IntRegister) for IntRegister
    watchdog.o(i.WatchdogIntRegister) refers to interrupt.o(i.IntEnable) for IntEnable
    watchdog.o(i.WatchdogIntUnregister) refers to interrupt.o(i.IntDisable) for IntDisable
    watchdog.o(i.WatchdogIntUnregister) refers to interrupt.o(i.IntUnregister) for IntUnregister
    uartstdio.o(i.UARTStdioConfig) refers to uartstdio.o(.constdata) for g_ui32UARTPeriph
    uartstdio.o(i.UARTStdioConfig) refers to uartstdio.o(.data) for g_ui32Base
    uartstdio.o(i.UARTgetc) refers to uartstdio.o(.data) for g_ui32Base
    uartstdio.o(i.UARTgets) refers to uartstdio.o(i.UARTwrite) for UARTwrite
    uartstdio.o(i.UARTgets) refers to uartstdio.o(.data) for g_ui32Base
    uartstdio.o(i.UARTprintf) refers to uartstdio.o(i.UARTvprintf) for UARTvprintf
    uartstdio.o(i.UARTvprintf) refers to uartstdio.o(i.UARTwrite) for UARTwrite
    uartstdio.o(i.UARTvprintf) refers to uartstdio.o(.constdata) for g_pcHex
    uartstdio.o(i.UARTwrite) refers to uartstdio.o(.data) for g_ui32Base
    uartstdio.o(.constdata) refers to uartstdio.o(.conststring) for .conststring
    uc1701.o(i.UC1701AddressSet) refers to uc1701.o(i.UC1701CmdWrite) for UC1701CmdWrite
    uc1701.o(i.UC1701AllPixelOnDisable) refers to uc1701.o(i.UC1701CmdWrite) for UC1701CmdWrite
    uc1701.o(i.UC1701AllPixelOnEnable) refers to uc1701.o(i.UC1701CmdWrite) for UC1701CmdWrite
    uc1701.o(i.UC1701BRSet) refers to uc1701.o(i.UC1701CmdWrite) for UC1701CmdWrite
    uc1701.o(i.UC1701CharDispaly) refers to uc1701.o(i.UC1701Dispaly) for UC1701Dispaly
    uc1701.o(i.UC1701ChineseDispaly) refers to uc1701.o(i.UC1701AddressSet) for UC1701AddressSet
    uc1701.o(i.UC1701ChineseDispaly) refers to uc1701.o(i.UC1701DataWrite) for UC1701DataWrite
    uc1701.o(i.UC1701Clear) refers to uc1701.o(i.UC1701CmdWrite) for UC1701CmdWrite
    uc1701.o(i.UC1701Clear) refers to uc1701.o(i.UC1701DataWrite) for UC1701DataWrite
    uc1701.o(i.UC1701CmdWrite) refers to gpio.o(i.GPIOPinWrite) for GPIOPinWrite
    uc1701.o(i.UC1701CmdWrite) refers to ssi.o(i.SSIDataPut) for SSIDataPut
    uc1701.o(i.UC1701CmdWrite) refers to ssi.o(i.SSIBusy) for SSIBusy
    uc1701.o(i.UC1701ComDirSet) refers to uc1701.o(i.UC1701CmdWrite) for UC1701CmdWrite
    uc1701.o(i.UC1701DataWrite) refers to gpio.o(i.GPIOPinWrite) for GPIOPinWrite
    uc1701.o(i.UC1701DataWrite) refers to ssi.o(i.SSIDataPut) for SSIDataPut
    uc1701.o(i.UC1701DataWrite) refers to ssi.o(i.SSIBusy) for SSIBusy
    uc1701.o(i.UC1701Dispaly) refers to uc1701.o(i.UC1701AddressSet) for UC1701AddressSet
    uc1701.o(i.UC1701Dispaly) refers to uc1701.o(i.UC1701DataWrite) for UC1701DataWrite
    uc1701.o(i.UC1701Dispaly) refers to uc1701.o(.data) for Ascii
    uc1701.o(i.UC1701DisplayN) refers to uc1701.o(i.UC1701Dispaly) for UC1701Dispaly
    uc1701.o(i.UC1701DisplayOff) refers to uc1701.o(i.UC1701CmdWrite) for UC1701CmdWrite
    uc1701.o(i.UC1701DisplayOn) refers to uc1701.o(i.UC1701CmdWrite) for UC1701CmdWrite
    uc1701.o(i.UC1701DoubleCmdWrite) refers to gpio.o(i.GPIOPinWrite) for GPIOPinWrite
    uc1701.o(i.UC1701DoubleCmdWrite) refers to ssi.o(i.SSIDataPut) for SSIDataPut
    uc1701.o(i.UC1701DoubleCmdWrite) refers to ssi.o(i.SSIBusy) for SSIBusy
    uc1701.o(i.UC1701Init) refers to sysctl.o(i.SysCtlPeripheralEnable) for SysCtlPeripheralEnable
    uc1701.o(i.UC1701Init) refers to gpio.o(i.GPIOPinTypeGPIOOutput) for GPIOPinTypeGPIOOutput
    uc1701.o(i.UC1701Init) refers to gpio.o(i.GPIOPinConfigure) for GPIOPinConfigure
    uc1701.o(i.UC1701Init) refers to gpio.o(i.GPIOPinTypeSSI) for GPIOPinTypeSSI
    uc1701.o(i.UC1701Init) refers to sysctl.o(i.SysCtlClockGet) for SysCtlClockGet
    uc1701.o(i.UC1701Init) refers to ssi.o(i.SSIConfigSetExpClk) for SSIConfigSetExpClk
    uc1701.o(i.UC1701Init) refers to ssi.o(i.SSIEnable) for SSIEnable
    uc1701.o(i.UC1701Init) refers to gpio.o(i.GPIOPinWrite) for GPIOPinWrite
    uc1701.o(i.UC1701Init) refers to uc1701.o(i.UC1701CmdWrite) for UC1701CmdWrite
    uc1701.o(i.UC1701Init) refers to uc1701.o(i.delay_ms) for delay_ms
    uc1701.o(i.UC1701InverseDisable) refers to uc1701.o(.data) for inverse_factor
    uc1701.o(i.UC1701InverseDispaly) refers to uc1701.o(i.UC1701AddressSet) for UC1701AddressSet
    uc1701.o(i.UC1701InverseDispaly) refers to uc1701.o(i.UC1701DataWrite) for UC1701DataWrite
    uc1701.o(i.UC1701InverseDispaly) refers to uc1701.o(.data) for Ascii
    uc1701.o(i.UC1701InverseEnable) refers to uc1701.o(.data) for inverse_factor
    uc1701.o(i.UC1701PMSet) refers to uc1701.o(i.UC1701DoubleCmdWrite) for UC1701DoubleCmdWrite
    uc1701.o(i.UC1701ScrollLineSet) refers to uc1701.o(i.UC1701CmdWrite) for UC1701CmdWrite
    uc1701.o(i.UC1701SegDirSet) refers to uc1701.o(i.UC1701CmdWrite) for UC1701CmdWrite
    uc1701.o(i.delay_ms) refers to sysctl.o(i.SysCtlClockGet) for SysCtlClockGet
    uc1701.o(i.delay_ms) refers to sysctl.o(.emb_text) for SysCtlDelay
    pcf8575.o(i.Delay5us) refers to sysctl.o(i.SysCtlClockGet) for SysCtlClockGet
    pcf8575.o(i.Delay5us) refers to sysctl.o(.emb_text) for SysCtlDelay
    pcf8575.o(i.I2C_Init) refers to sysctl.o(.emb_text) for SysCtlDelay
    pcf8575.o(i.I2C_Init) refers to sysctl.o(i.SysCtlPeripheralEnable) for SysCtlPeripheralEnable
    pcf8575.o(i.I2C_Init) refers to gpio.o(i.GPIOPinTypeGPIOOutput) for GPIOPinTypeGPIOOutput
    pcf8575.o(i.I2C_Init) refers to gpio.o(i.GPIOPinWrite) for GPIOPinWrite
    pcf8575.o(i.I2C_RecvACK) refers to gpio.o(i.GPIOPinTypeGPIOInput) for GPIOPinTypeGPIOInput
    pcf8575.o(i.I2C_RecvACK) refers to gpio.o(i.GPIOPinWrite) for GPIOPinWrite
    pcf8575.o(i.I2C_RecvACK) refers to pcf8575.o(i.Delay5us) for Delay5us
    pcf8575.o(i.I2C_RecvACK) refers to gpio.o(i.GPIOPinRead) for GPIOPinRead
    pcf8575.o(i.I2C_RecvACK) refers to gpio.o(i.GPIOPinTypeGPIOOutput) for GPIOPinTypeGPIOOutput
    pcf8575.o(i.I2C_SendACK) refers to gpio.o(i.GPIOPinWrite) for GPIOPinWrite
    pcf8575.o(i.I2C_SendACK) refers to pcf8575.o(i.Delay5us) for Delay5us
    pcf8575.o(i.I2C_SendByte) refers to gpio.o(i.GPIOPinWrite) for GPIOPinWrite
    pcf8575.o(i.I2C_SendByte) refers to pcf8575.o(i.Delay5us) for Delay5us
    pcf8575.o(i.I2C_SendByte) refers to pcf8575.o(i.I2C_RecvACK) for I2C_RecvACK
    pcf8575.o(i.I2C_Start) refers to gpio.o(i.GPIOPinWrite) for GPIOPinWrite
    pcf8575.o(i.I2C_Start) refers to pcf8575.o(i.Delay5us) for Delay5us
    pcf8575.o(i.I2C_Stop) refers to gpio.o(i.GPIOPinWrite) for GPIOPinWrite
    pcf8575.o(i.I2C_Stop) refers to pcf8575.o(i.Delay5us) for Delay5us
    pcf8575.o(i.IO_OUTPUT_SET) refers to pcf8575.o(i.I2C_Start) for I2C_Start
    pcf8575.o(i.IO_OUTPUT_SET) refers to pcf8575.o(i.I2C_SendByte) for I2C_SendByte
    pcf8575.o(i.IO_OUTPUT_SET) refers to pcf8575.o(i.I2C_Stop) for I2C_Stop
    startup_rvmdk.o(RESET) refers to startup_rvmdk.o(STACK) for StackMem
    startup_rvmdk.o(RESET) refers to entry.o(.ARM.Collect$$$$00000000) for __main
    sqrt.o(i.__hardfp_sqrt) refers (Special) to iusefp.o(.text) for __I$use$fp
    sqrt.o(i.__hardfp_sqrt) refers to dsqrt.o(.text) for _dsqrt
    sqrt.o(i.__hardfp_sqrt) refers to errno.o(i.__set_errno) for __set_errno
    sqrt.o(i.__softfp_sqrt) refers (Special) to iusefp.o(.text) for __I$use$fp
    sqrt.o(i.__softfp_sqrt) refers to dsqrt.o(.text) for _dsqrt
    sqrt.o(i.__softfp_sqrt) refers to errno.o(i.__set_errno) for __set_errno
    sqrt.o(i.sqrt) refers (Special) to iusefp.o(.text) for __I$use$fp
    sqrt.o(i.sqrt) refers to dsqrt.o(.text) for _dsqrt
    sqrt.o(i.sqrt) refers to errno.o(i.__set_errno) for __set_errno
    sqrt_x.o(i.____hardfp_sqrt$lsc) refers (Special) to iusefp.o(.text) for __I$use$fp
    sqrt_x.o(i.____hardfp_sqrt$lsc) refers to cdcmple.o(.text) for __aeabi_cdcmple
    sqrt_x.o(i.____hardfp_sqrt$lsc) refers to errno.o(i.__set_errno) for __set_errno
    sqrt_x.o(i.____hardfp_sqrt$lsc) refers to dsqrt.o(.text) for _dsqrt
    sqrt_x.o(i.____softfp_sqrt$lsc) refers (Special) to iusefp.o(.text) for __I$use$fp
    sqrt_x.o(i.____softfp_sqrt$lsc) refers to cdcmple.o(.text) for __aeabi_cdcmple
    sqrt_x.o(i.____softfp_sqrt$lsc) refers to errno.o(i.__set_errno) for __set_errno
    sqrt_x.o(i.____softfp_sqrt$lsc) refers to dsqrt.o(.text) for _dsqrt
    sqrt_x.o(i.__sqrt$lsc) refers (Special) to iusefp.o(.text) for __I$use$fp
    sqrt_x.o(i.__sqrt$lsc) refers to cdcmple.o(.text) for __aeabi_cdcmple
    sqrt_x.o(i.__sqrt$lsc) refers to errno.o(i.__set_errno) for __set_errno
    sqrt_x.o(i.__sqrt$lsc) refers to dsqrt.o(.text) for _dsqrt
    entry.o(.ARM.Collect$$$$00000000) refers (Special) to entry10a.o(.ARM.Collect$$$$0000000F) for __rt_final_cpp
    entry.o(.ARM.Collect$$$$00000000) refers (Special) to entry11a.o(.ARM.Collect$$$$00000011) for __rt_final_exit
    entry.o(.ARM.Collect$$$$00000000) refers (Special) to entry12b.o(.ARM.Collect$$$$0000000E) for __rt_lib_shutdown_fini
    entry.o(.ARM.Collect$$$$00000000) refers (Special) to entry7b.o(.ARM.Collect$$$$00000008) for _main_clock
    entry.o(.ARM.Collect$$$$00000000) refers (Special) to entry8b.o(.ARM.Collect$$$$0000000A) for _main_cpp_init
    entry.o(.ARM.Collect$$$$00000000) refers (Special) to entry9a.o(.ARM.Collect$$$$0000000B) for _main_init
    entry.o(.ARM.Collect$$$$00000000) refers (Special) to entry5.o(.ARM.Collect$$$$00000004) for _main_scatterload
    entry.o(.ARM.Collect$$$$00000000) refers (Special) to entry2.o(.ARM.Collect$$$$00000001) for _main_stk
    printfb.o(i.__0fprintf$bare) refers to printfb.o(i._printf_core) for _printf_core
    printfb.o(i.__0fprintf$bare) refers to fputc.o(i.fputc) for fputc
    printfb.o(i.__0printf$bare) refers to printfb.o(i._printf_core) for _printf_core
    printfb.o(i.__0printf$bare) refers to fputc.o(i.fputc) for fputc
    printfb.o(i.__0printf$bare) refers to stdout.o(.data) for __stdout
    printfb.o(i.__0snprintf$bare) refers to printfb.o(i._printf_core) for _printf_core
    printfb.o(i.__0snprintf$bare) refers to printfb.o(i._snputc) for _snputc
    printfb.o(i.__0sprintf$bare) refers to printfb.o(i._printf_core) for _printf_core
    printfb.o(i.__0sprintf$bare) refers to printfb.o(i._sputc) for _sputc
    printfb.o(i.__0vfprintf$bare) refers to printfb.o(i._printf_core) for _printf_core
    printfb.o(i.__0vfprintf$bare) refers to fputc.o(i.fputc) for fputc
    printfb.o(i.__0vprintf$bare) refers to printfb.o(i._printf_core) for _printf_core
    printfb.o(i.__0vprintf$bare) refers to fputc.o(i.fputc) for fputc
    printfb.o(i.__0vprintf$bare) refers to stdout.o(.data) for __stdout
    printfb.o(i.__0vsnprintf$bare) refers to printfb.o(i._printf_core) for _printf_core
    printfb.o(i.__0vsnprintf$bare) refers to printfb.o(i._snputc) for _snputc
    printfb.o(i.__0vsprintf$bare) refers to printfb.o(i._printf_core) for _printf_core
    printfb.o(i.__0vsprintf$bare) refers to printfb.o(i._sputc) for _sputc
    printf0.o(i.__0fprintf$0) refers to printf0.o(i._printf_core) for _printf_core
    printf0.o(i.__0fprintf$0) refers to fputc.o(i.fputc) for fputc
    printf0.o(i.__0printf$0) refers to printf0.o(i._printf_core) for _printf_core
    printf0.o(i.__0printf$0) refers to fputc.o(i.fputc) for fputc
    printf0.o(i.__0printf$0) refers to stdout.o(.data) for __stdout
    printf0.o(i.__0snprintf$0) refers to printf0.o(i._printf_core) for _printf_core
    printf0.o(i.__0snprintf$0) refers to printf0.o(i._snputc) for _snputc
    printf0.o(i.__0sprintf$0) refers to printf0.o(i._printf_core) for _printf_core
    printf0.o(i.__0sprintf$0) refers to printf0.o(i._sputc) for _sputc
    printf0.o(i.__0vfprintf$0) refers to printf0.o(i._printf_core) for _printf_core
    printf0.o(i.__0vfprintf$0) refers to fputc.o(i.fputc) for fputc
    printf0.o(i.__0vprintf$0) refers to printf0.o(i._printf_core) for _printf_core
    printf0.o(i.__0vprintf$0) refers to fputc.o(i.fputc) for fputc
    printf0.o(i.__0vprintf$0) refers to stdout.o(.data) for __stdout
    printf0.o(i.__0vsnprintf$0) refers to printf0.o(i._printf_core) for _printf_core
    printf0.o(i.__0vsnprintf$0) refers to printf0.o(i._snputc) for _snputc
    printf0.o(i.__0vsprintf$0) refers to printf0.o(i._printf_core) for _printf_core
    printf0.o(i.__0vsprintf$0) refers to printf0.o(i._sputc) for _sputc
    printf1.o(i.__0fprintf$1) refers to printf1.o(i._printf_core) for _printf_core
    printf1.o(i.__0fprintf$1) refers to fputc.o(i.fputc) for fputc
    printf1.o(i.__0printf$1) refers to printf1.o(i._printf_core) for _printf_core
    printf1.o(i.__0printf$1) refers to fputc.o(i.fputc) for fputc
    printf1.o(i.__0printf$1) refers to stdout.o(.data) for __stdout
    printf1.o(i.__0snprintf$1) refers to printf1.o(i._printf_core) for _printf_core
    printf1.o(i.__0snprintf$1) refers to printf1.o(i._snputc) for _snputc
    printf1.o(i.__0sprintf$1) refers to printf1.o(i._printf_core) for _printf_core
    printf1.o(i.__0sprintf$1) refers to printf1.o(i._sputc) for _sputc
    printf1.o(i.__0vfprintf$1) refers to printf1.o(i._printf_core) for _printf_core
    printf1.o(i.__0vfprintf$1) refers to fputc.o(i.fputc) for fputc
    printf1.o(i.__0vprintf$1) refers to printf1.o(i._printf_core) for _printf_core
    printf1.o(i.__0vprintf$1) refers to fputc.o(i.fputc) for fputc
    printf1.o(i.__0vprintf$1) refers to stdout.o(.data) for __stdout
    printf1.o(i.__0vsnprintf$1) refers to printf1.o(i._printf_core) for _printf_core
    printf1.o(i.__0vsnprintf$1) refers to printf1.o(i._snputc) for _snputc
    printf1.o(i.__0vsprintf$1) refers to printf1.o(i._printf_core) for _printf_core
    printf1.o(i.__0vsprintf$1) refers to printf1.o(i._sputc) for _sputc
    printf1.o(i._printf_core) refers to uidiv.o(.text) for __aeabi_uidivmod
    printf2.o(i.__0fprintf$2) refers to printf2.o(i._printf_core) for _printf_core
    printf2.o(i.__0fprintf$2) refers to fputc.o(i.fputc) for fputc
    printf2.o(i.__0printf$2) refers to printf2.o(i._printf_core) for _printf_core
    printf2.o(i.__0printf$2) refers to fputc.o(i.fputc) for fputc
    printf2.o(i.__0printf$2) refers to stdout.o(.data) for __stdout
    printf2.o(i.__0snprintf$2) refers to printf2.o(i._printf_core) for _printf_core
    printf2.o(i.__0snprintf$2) refers to printf2.o(i._snputc) for _snputc
    printf2.o(i.__0sprintf$2) refers to printf2.o(i._printf_core) for _printf_core
    printf2.o(i.__0sprintf$2) refers to printf2.o(i._sputc) for _sputc
    printf2.o(i.__0vfprintf$2) refers to printf2.o(i._printf_core) for _printf_core
    printf2.o(i.__0vfprintf$2) refers to fputc.o(i.fputc) for fputc
    printf2.o(i.__0vprintf$2) refers to printf2.o(i._printf_core) for _printf_core
    printf2.o(i.__0vprintf$2) refers to fputc.o(i.fputc) for fputc
    printf2.o(i.__0vprintf$2) refers to stdout.o(.data) for __stdout
    printf2.o(i.__0vsnprintf$2) refers to printf2.o(i._printf_core) for _printf_core
    printf2.o(i.__0vsnprintf$2) refers to printf2.o(i._snputc) for _snputc
    printf2.o(i.__0vsprintf$2) refers to printf2.o(i._printf_core) for _printf_core
    printf2.o(i.__0vsprintf$2) refers to printf2.o(i._sputc) for _sputc
    printf3.o(i.__0fprintf$3) refers to printf3.o(i._printf_core) for _printf_core
    printf3.o(i.__0fprintf$3) refers to fputc.o(i.fputc) for fputc
    printf3.o(i.__0printf$3) refers to printf3.o(i._printf_core) for _printf_core
    printf3.o(i.__0printf$3) refers to fputc.o(i.fputc) for fputc
    printf3.o(i.__0printf$3) refers to stdout.o(.data) for __stdout
    printf3.o(i.__0snprintf$3) refers to printf3.o(i._printf_core) for _printf_core
    printf3.o(i.__0snprintf$3) refers to printf3.o(i._snputc) for _snputc
    printf3.o(i.__0sprintf$3) refers to printf3.o(i._printf_core) for _printf_core
    printf3.o(i.__0sprintf$3) refers to printf3.o(i._sputc) for _sputc
    printf3.o(i.__0vfprintf$3) refers to printf3.o(i._printf_core) for _printf_core
    printf3.o(i.__0vfprintf$3) refers to fputc.o(i.fputc) for fputc
    printf3.o(i.__0vprintf$3) refers to printf3.o(i._printf_core) for _printf_core
    printf3.o(i.__0vprintf$3) refers to fputc.o(i.fputc) for fputc
    printf3.o(i.__0vprintf$3) refers to stdout.o(.data) for __stdout
    printf3.o(i.__0vsnprintf$3) refers to printf3.o(i._printf_core) for _printf_core
    printf3.o(i.__0vsnprintf$3) refers to printf3.o(i._snputc) for _snputc
    printf3.o(i.__0vsprintf$3) refers to printf3.o(i._printf_core) for _printf_core
    printf3.o(i.__0vsprintf$3) refers to printf3.o(i._sputc) for _sputc
    printf3.o(i._printf_core) refers to uidiv.o(.text) for __aeabi_uidivmod
    printf4.o(i.__0fprintf$4) refers to printf4.o(i._printf_core) for _printf_core
    printf4.o(i.__0fprintf$4) refers to fputc.o(i.fputc) for fputc
    printf4.o(i.__0printf$4) refers to printf4.o(i._printf_core) for _printf_core
    printf4.o(i.__0printf$4) refers to fputc.o(i.fputc) for fputc
    printf4.o(i.__0printf$4) refers to stdout.o(.data) for __stdout
    printf4.o(i.__0snprintf$4) refers to printf4.o(i._printf_core) for _printf_core
    printf4.o(i.__0snprintf$4) refers to printf4.o(i._snputc) for _snputc
    printf4.o(i.__0sprintf$4) refers to printf4.o(i._printf_core) for _printf_core
    printf4.o(i.__0sprintf$4) refers to printf4.o(i._sputc) for _sputc
    printf4.o(i.__0vfprintf$4) refers to printf4.o(i._printf_core) for _printf_core
    printf4.o(i.__0vfprintf$4) refers to fputc.o(i.fputc) for fputc
    printf4.o(i.__0vprintf$4) refers to printf4.o(i._printf_core) for _printf_core
    printf4.o(i.__0vprintf$4) refers to fputc.o(i.fputc) for fputc
    printf4.o(i.__0vprintf$4) refers to stdout.o(.data) for __stdout
    printf4.o(i.__0vsnprintf$4) refers to printf4.o(i._printf_core) for _printf_core
    printf4.o(i.__0vsnprintf$4) refers to printf4.o(i._snputc) for _snputc
    printf4.o(i.__0vsprintf$4) refers to printf4.o(i._printf_core) for _printf_core
    printf4.o(i.__0vsprintf$4) refers to printf4.o(i._sputc) for _sputc
    printf4.o(i._printf_core) refers to uldiv.o(.text) for __aeabi_uldivmod
    printf5.o(i.__0fprintf$5) refers to printf5.o(i._printf_core) for _printf_core
    printf5.o(i.__0fprintf$5) refers to fputc.o(i.fputc) for fputc
    printf5.o(i.__0printf$5) refers to printf5.o(i._printf_core) for _printf_core
    printf5.o(i.__0printf$5) refers to fputc.o(i.fputc) for fputc
    printf5.o(i.__0printf$5) refers to stdout.o(.data) for __stdout
    printf5.o(i.__0snprintf$5) refers to printf5.o(i._printf_core) for _printf_core
    printf5.o(i.__0snprintf$5) refers to printf5.o(i._snputc) for _snputc
    printf5.o(i.__0sprintf$5) refers to printf5.o(i._printf_core) for _printf_core
    printf5.o(i.__0sprintf$5) refers to printf5.o(i._sputc) for _sputc
    printf5.o(i.__0vfprintf$5) refers to printf5.o(i._printf_core) for _printf_core
    printf5.o(i.__0vfprintf$5) refers to fputc.o(i.fputc) for fputc
    printf5.o(i.__0vprintf$5) refers to printf5.o(i._printf_core) for _printf_core
    printf5.o(i.__0vprintf$5) refers to fputc.o(i.fputc) for fputc
    printf5.o(i.__0vprintf$5) refers to stdout.o(.data) for __stdout
    printf5.o(i.__0vsnprintf$5) refers to printf5.o(i._printf_core) for _printf_core
    printf5.o(i.__0vsnprintf$5) refers to printf5.o(i._snputc) for _snputc
    printf5.o(i.__0vsprintf$5) refers to printf5.o(i._printf_core) for _printf_core
    printf5.o(i.__0vsprintf$5) refers to printf5.o(i._sputc) for _sputc
    printf5.o(i._printf_core) refers to uldiv.o(.text) for __aeabi_uldivmod
    printf6.o(i.__0fprintf$6) refers to printf6.o(i._printf_core) for _printf_core
    printf6.o(i.__0fprintf$6) refers to fputc.o(i.fputc) for fputc
    printf6.o(i.__0printf$6) refers to printf6.o(i._printf_core) for _printf_core
    printf6.o(i.__0printf$6) refers to fputc.o(i.fputc) for fputc
    printf6.o(i.__0printf$6) refers to stdout.o(.data) for __stdout
    printf6.o(i.__0snprintf$6) refers to printf6.o(i._printf_core) for _printf_core
    printf6.o(i.__0snprintf$6) refers to printf6.o(i._snputc) for _snputc
    printf6.o(i.__0sprintf$6) refers to printf6.o(i._printf_core) for _printf_core
    printf6.o(i.__0sprintf$6) refers to printf6.o(i._sputc) for _sputc
    printf6.o(i.__0vfprintf$6) refers to printf6.o(i._printf_core) for _printf_core
    printf6.o(i.__0vfprintf$6) refers to fputc.o(i.fputc) for fputc
    printf6.o(i.__0vprintf$6) refers to printf6.o(i._printf_core) for _printf_core
    printf6.o(i.__0vprintf$6) refers to fputc.o(i.fputc) for fputc
    printf6.o(i.__0vprintf$6) refers to stdout.o(.data) for __stdout
    printf6.o(i.__0vsnprintf$6) refers to printf6.o(i._printf_core) for _printf_core
    printf6.o(i.__0vsnprintf$6) refers to printf6.o(i._snputc) for _snputc
    printf6.o(i.__0vsprintf$6) refers to printf6.o(i._printf_core) for _printf_core
    printf6.o(i.__0vsprintf$6) refers to printf6.o(i._sputc) for _sputc
    printf6.o(i._printf_core) refers to printf6.o(i._printf_pre_padding) for _printf_pre_padding
    printf6.o(i._printf_core) refers to uidiv.o(.text) for __aeabi_uidivmod
    printf6.o(i._printf_core) refers to printf6.o(i._printf_post_padding) for _printf_post_padding
    printf7.o(i.__0fprintf$7) refers to printf7.o(i._printf_core) for _printf_core
    printf7.o(i.__0fprintf$7) refers to fputc.o(i.fputc) for fputc
    printf7.o(i.__0printf$7) refers to printf7.o(i._printf_core) for _printf_core
    printf7.o(i.__0printf$7) refers to fputc.o(i.fputc) for fputc
    printf7.o(i.__0printf$7) refers to stdout.o(.data) for __stdout
    printf7.o(i.__0snprintf$7) refers to printf7.o(i._printf_core) for _printf_core
    printf7.o(i.__0snprintf$7) refers to printf7.o(i._snputc) for _snputc
    printf7.o(i.__0sprintf$7) refers to printf7.o(i._printf_core) for _printf_core
    printf7.o(i.__0sprintf$7) refers to printf7.o(i._sputc) for _sputc
    printf7.o(i.__0vfprintf$7) refers to printf7.o(i._printf_core) for _printf_core
    printf7.o(i.__0vfprintf$7) refers to fputc.o(i.fputc) for fputc
    printf7.o(i.__0vprintf$7) refers to printf7.o(i._printf_core) for _printf_core
    printf7.o(i.__0vprintf$7) refers to fputc.o(i.fputc) for fputc
    printf7.o(i.__0vprintf$7) refers to stdout.o(.data) for __stdout
    printf7.o(i.__0vsnprintf$7) refers to printf7.o(i._printf_core) for _printf_core
    printf7.o(i.__0vsnprintf$7) refers to printf7.o(i._snputc) for _snputc
    printf7.o(i.__0vsprintf$7) refers to printf7.o(i._printf_core) for _printf_core
    printf7.o(i.__0vsprintf$7) refers to printf7.o(i._sputc) for _sputc
    printf7.o(i._printf_core) refers to printf7.o(i._printf_pre_padding) for _printf_pre_padding
    printf7.o(i._printf_core) refers to uldiv.o(.text) for __aeabi_uldivmod
    printf7.o(i._printf_core) refers to printf7.o(i._printf_post_padding) for _printf_post_padding
    printf8.o(i.__0fprintf$8) refers to printf8.o(i._printf_core) for _printf_core
    printf8.o(i.__0fprintf$8) refers to fputc.o(i.fputc) for fputc
    printf8.o(i.__0printf$8) refers to printf8.o(i._printf_core) for _printf_core
    printf8.o(i.__0printf$8) refers to fputc.o(i.fputc) for fputc
    printf8.o(i.__0printf$8) refers to stdout.o(.data) for __stdout
    printf8.o(i.__0snprintf$8) refers to printf8.o(i._printf_core) for _printf_core
    printf8.o(i.__0snprintf$8) refers to printf8.o(i._snputc) for _snputc
    printf8.o(i.__0sprintf$8) refers to printf8.o(i._printf_core) for _printf_core
    printf8.o(i.__0sprintf$8) refers to printf8.o(i._sputc) for _sputc
    printf8.o(i.__0vfprintf$8) refers to printf8.o(i._printf_core) for _printf_core
    printf8.o(i.__0vfprintf$8) refers to fputc.o(i.fputc) for fputc
    printf8.o(i.__0vprintf$8) refers to printf8.o(i._printf_core) for _printf_core
    printf8.o(i.__0vprintf$8) refers to fputc.o(i.fputc) for fputc
    printf8.o(i.__0vprintf$8) refers to stdout.o(.data) for __stdout
    printf8.o(i.__0vsnprintf$8) refers to printf8.o(i._printf_core) for _printf_core
    printf8.o(i.__0vsnprintf$8) refers to printf8.o(i._snputc) for _snputc
    printf8.o(i.__0vsprintf$8) refers to printf8.o(i._printf_core) for _printf_core
    printf8.o(i.__0vsprintf$8) refers to printf8.o(i._sputc) for _sputc
    printf8.o(i._printf_core) refers to printf8.o(i._printf_pre_padding) for _printf_pre_padding
    printf8.o(i._printf_core) refers to uldiv.o(.text) for __aeabi_uldivmod
    printf8.o(i._printf_core) refers to printf8.o(i._printf_post_padding) for _printf_post_padding
    printfa.o(i.__0fprintf) refers (Special) to iusefp.o(.text) for __I$use$fp
    printfa.o(i.__0fprintf) refers to printfa.o(i._printf_core) for _printf_core
    printfa.o(i.__0fprintf) refers to fputc.o(i.fputc) for fputc
    printfa.o(i.__0printf) refers (Special) to iusefp.o(.text) for __I$use$fp
    printfa.o(i.__0printf) refers to printfa.o(i._printf_core) for _printf_core
    printfa.o(i.__0printf) refers to fputc.o(i.fputc) for fputc
    printfa.o(i.__0printf) refers to stdout.o(.data) for __stdout
    printfa.o(i.__0snprintf) refers (Special) to iusefp.o(.text) for __I$use$fp
    printfa.o(i.__0snprintf) refers to printfa.o(i._printf_core) for _printf_core
    printfa.o(i.__0snprintf) refers to printfa.o(i._snputc) for _snputc
    printfa.o(i.__0sprintf) refers (Special) to iusefp.o(.text) for __I$use$fp
    printfa.o(i.__0sprintf) refers to printfa.o(i._printf_core) for _printf_core
    printfa.o(i.__0sprintf) refers to printfa.o(i._sputc) for _sputc
    printfa.o(i.__0vfprintf) refers (Special) to iusefp.o(.text) for __I$use$fp
    printfa.o(i.__0vfprintf) refers to printfa.o(i._printf_core) for _printf_core
    printfa.o(i.__0vfprintf) refers to fputc.o(i.fputc) for fputc
    printfa.o(i.__0vprintf) refers (Special) to iusefp.o(.text) for __I$use$fp
    printfa.o(i.__0vprintf) refers to printfa.o(i._printf_core) for _printf_core
    printfa.o(i.__0vprintf) refers to fputc.o(i.fputc) for fputc
    printfa.o(i.__0vprintf) refers to stdout.o(.data) for __stdout
    printfa.o(i.__0vsnprintf) refers (Special) to iusefp.o(.text) for __I$use$fp
    printfa.o(i.__0vsnprintf) refers to printfa.o(i._printf_core) for _printf_core
    printfa.o(i.__0vsnprintf) refers to printfa.o(i._snputc) for _snputc
    printfa.o(i.__0vsprintf) refers (Special) to iusefp.o(.text) for __I$use$fp
    printfa.o(i.__0vsprintf) refers to printfa.o(i._printf_core) for _printf_core
    printfa.o(i.__0vsprintf) refers to printfa.o(i._sputc) for _sputc
    printfa.o(i._fp_digits) refers (Special) to iusefp.o(.text) for __I$use$fp
    printfa.o(i._fp_digits) refers to dmul.o(.text) for __aeabi_dmul
    printfa.o(i._fp_digits) refers to ddiv.o(.text) for __aeabi_ddiv
    printfa.o(i._fp_digits) refers to cdrcmple.o(.text) for __aeabi_cdrcmple
    printfa.o(i._fp_digits) refers to dadd.o(.text) for __aeabi_dadd
    printfa.o(i._fp_digits) refers to dfixul.o(.text) for __aeabi_d2ulz
    printfa.o(i._fp_digits) refers to uldiv.o(.text) for __aeabi_uldivmod
    printfa.o(i._printf_core) refers (Special) to iusefp.o(.text) for __I$use$fp
    printfa.o(i._printf_core) refers to printfa.o(i._printf_pre_padding) for _printf_pre_padding
    printfa.o(i._printf_core) refers to uldiv.o(.text) for __aeabi_uldivmod
    printfa.o(i._printf_core) refers to printfa.o(i._printf_post_padding) for _printf_post_padding
    printfa.o(i._printf_core) refers to printfa.o(i._fp_digits) for _fp_digits
    printfa.o(i._printf_core) refers to uidiv.o(.text) for __aeabi_uidivmod
    printfa.o(i._printf_post_padding) refers (Special) to iusefp.o(.text) for __I$use$fp
    printfa.o(i._printf_pre_padding) refers (Special) to iusefp.o(.text) for __I$use$fp
    printfa.o(i._snputc) refers (Special) to iusefp.o(.text) for __I$use$fp
    printfa.o(i._sputc) refers (Special) to iusefp.o(.text) for __I$use$fp
    dadd.o(.text) refers (Special) to iusefp.o(.text) for __I$use$fp
    dadd.o(.text) refers to llshl.o(.text) for __aeabi_llsl
    dadd.o(.text) refers to llsshr.o(.text) for __aeabi_lasr
    dadd.o(.text) refers to depilogue.o(.text) for _double_epilogue
    dmul.o(.text) refers (Special) to iusefp.o(.text) for __I$use$fp
    dmul.o(.text) refers to depilogue.o(.text) for _double_epilogue
    ddiv.o(.text) refers (Special) to iusefp.o(.text) for __I$use$fp
    ddiv.o(.text) refers to depilogue.o(.text) for _double_round
    dflti.o(.text) refers (Special) to iusefp.o(.text) for __I$use$fp
    dflti.o(.text) refers to depilogue.o(.text) for _double_epilogue
    dfltui.o(.text) refers (Special) to iusefp.o(.text) for __I$use$fp
    dfltui.o(.text) refers to depilogue.o(.text) for _double_epilogue
    dfixi.o(.text) refers (Special) to iusefp.o(.text) for __I$use$fp
    dfixi.o(.text) refers to llushr.o(.text) for __aeabi_llsr
    dfixui.o(.text) refers (Special) to iusefp.o(.text) for __I$use$fp
    dfixui.o(.text) refers to llushr.o(.text) for __aeabi_llsr
    cdcmple.o(.text) refers (Special) to iusefp.o(.text) for __I$use$fp
    entry2.o(.ARM.Collect$$$$00000001) refers to entry2.o(.ARM.Collect$$$$00002712) for __lit__00000000
    entry2.o(.ARM.Collect$$$$00002712) refers to startup_rvmdk.o(STACK) for __initial_sp
    entry2.o(__vectab_stack_and_reset_area) refers to startup_rvmdk.o(STACK) for __initial_sp
    entry2.o(__vectab_stack_and_reset_area) refers to entry.o(.ARM.Collect$$$$00000000) for __main
    entry5.o(.ARM.Collect$$$$00000004) refers to init.o(.text) for __scatterload
    entry9a.o(.ARM.Collect$$$$0000000B) refers to main.o(i.main) for main
    entry9b.o(.ARM.Collect$$$$0000000C) refers to main.o(i.main) for main
    fputc.o(i.fputc) refers (Special) to iusesemip.o(.text) for __I$use$semihosting$fputc
    fputc.o(i.fputc) refers (Special) to semi.o(.text) for __semihosting_library_function
    uldiv.o(.text) refers to llushr.o(.text) for __aeabi_llsr
    uldiv.o(.text) refers to llshl.o(.text) for __aeabi_llsl
    errno.o(i.__aeabi_errno_addr) refers to errno.o(.data) for .data
    errno.o(i.__read_errno) refers to errno.o(.data) for .data
    errno.o(i.__set_errno) refers to errno.o(.data) for .data
    depilogue.o(.text) refers to llshl.o(.text) for __aeabi_llsl
    depilogue.o(.text) refers to llushr.o(.text) for __aeabi_llsr
    dsqrt.o(.text) refers to llushr.o(.text) for __aeabi_llsr
    dsqrt.o(.text) refers to depilogue.o(.text) for _double_round
    dfixul.o(.text) refers to llushr.o(.text) for __aeabi_llsr
    dfixul.o(.text) refers to llshl.o(.text) for __aeabi_llsl
    init.o(.text) refers to entry5.o(.ARM.Collect$$$$00000004) for __main_after_scatterload


==============================================================================

Removing Unused input sections from the image.

    Removing led.o(i.LED_BULE), (48 bytes).
    Removing led.o(i.LED_GREEN), (48 bytes).
    Removing led.o(i.LED_RED), (48 bytes).
    Removing led.o(i.LED_int), (156 bytes).
    Removing time0.o(i.TIME_INT), (60 bytes).
    Removing lxy_adc.o(i.ADC_SS0_INT), (36 bytes).
    Removing lxy_adc.o(i.ADC_SS0_SET), (120 bytes).
    Removing lxy_adc.o(i.ADC_SS1_INT), (36 bytes).
    Removing lxy_adc.o(i.ADC_SS1_SET), (72 bytes).
    Removing lxy_adc.o(i.ADC_SS2_INT), (36 bytes).
    Removing lxy_adc.o(i.ADC_SS2_SET), (72 bytes).
    Removing lxy_adc.o(i.ADC_SS3_INT), (36 bytes).
    Removing lxy_adc.o(i.ADC_init_SS0), (48 bytes).
    Removing lxy_adc.o(i.ADC_init_SS1), (40 bytes).
    Removing lxy_adc.o(i.ADC_init_SS2), (40 bytes).
    Removing lxy_pwm.o(i.PWM_duty), (88 bytes).
    Removing lxy_pwm.o(i.PWM_init), (304 bytes).
    Removing lxy_uart.o(i.UART0_enable), (40 bytes).
    Removing adc_1.o(i.ADCBusy), (10 bytes).
    Removing adc_1.o(i.ADCClockConfigGet), (40 bytes).
    Removing adc_1.o(i.ADCClockConfigSet), (24 bytes).
    Removing adc_1.o(i.ADCComparatorConfigure), (10 bytes).
    Removing adc_1.o(i.ADCComparatorIntClear), (4 bytes).
    Removing adc_1.o(i.ADCComparatorIntDisable), (14 bytes).
    Removing adc_1.o(i.ADCComparatorIntEnable), (14 bytes).
    Removing adc_1.o(i.ADCComparatorIntStatus), (6 bytes).
    Removing adc_1.o(i.ADCComparatorRegionSet), (16 bytes).
    Removing adc_1.o(i.ADCComparatorReset), (34 bytes).
    Removing adc_1.o(i.ADCHardwareOversampleConfigure), (18 bytes).
    Removing adc_1.o(i.ADCIntClear), (8 bytes).
    Removing adc_1.o(i.ADCIntClearEx), (4 bytes).
    Removing adc_1.o(i.ADCIntDisable), (12 bytes).
    Removing adc_1.o(i.ADCIntDisableEx), (8 bytes).
    Removing adc_1.o(i.ADCIntEnable), (18 bytes).
    Removing adc_1.o(i.ADCIntEnableEx), (8 bytes).
    Removing adc_1.o(i.ADCIntRegister), (38 bytes).
    Removing adc_1.o(i.ADCIntStatus), (54 bytes).
    Removing adc_1.o(i.ADCIntStatusEx), (22 bytes).
    Removing adc_1.o(i.ADCIntUnregister), (30 bytes).
    Removing adc_1.o(i.ADCPhaseDelayGet), (6 bytes).
    Removing adc_1.o(i.ADCPhaseDelaySet), (4 bytes).
    Removing adc_1.o(i.ADCProcessorTrigger), (24 bytes).
    Removing adc_1.o(i.ADCReferenceGet), (10 bytes).
    Removing adc_1.o(i.ADCReferenceSet), (12 bytes).
    Removing adc_1.o(i.ADCSequenceDMADisable), (14 bytes).
    Removing adc_1.o(i.ADCSequenceDMAEnable), (14 bytes).
    Removing adc_1.o(i.ADCSequenceDisable), (12 bytes).
    Removing adc_1.o(i.ADCSequenceOverflow), (12 bytes).
    Removing adc_1.o(i.ADCSequenceOverflowClear), (8 bytes).
    Removing adc_1.o(i.ADCSequenceUnderflow), (12 bytes).
    Removing adc_1.o(i.ADCSequenceUnderflowClear), (8 bytes).
    Removing adc_1.o(i.ADCSoftwareOversampleConfigure), (52 bytes).
    Removing adc_1.o(i.ADCSoftwareOversampleDataGet), (96 bytes).
    Removing adc_1.o(i.ADCSoftwareOversampleStepConfigure), (144 bytes).
    Removing adc_1.o(i._ADCIntNumberGet), (96 bytes).
    Removing adc_1.o(.data), (6 bytes).
    Removing aes.o(i.AESAuthLengthSet), (4 bytes).
    Removing aes.o(i.AESConfigSet), (16 bytes).
    Removing aes.o(i.AESDMADisable), (12 bytes).
    Removing aes.o(i.AESDMAEnable), (12 bytes).
    Removing aes.o(i.AESDataAuth), (58 bytes).
    Removing aes.o(i.AESDataProcess), (68 bytes).
    Removing aes.o(i.AESDataProcessAuth), (108 bytes).
    Removing aes.o(i.AESDataRead), (30 bytes).
    Removing aes.o(i.AESDataReadNonBlocking), (34 bytes).
    Removing aes.o(i.AESDataWrite), (30 bytes).
    Removing aes.o(i.AESDataWriteNonBlocking), (34 bytes).
    Removing aes.o(i.AESIVRead), (30 bytes).
    Removing aes.o(i.AESIVSet), (18 bytes).
    Removing aes.o(i.AESIntClear), (28 bytes).
    Removing aes.o(i.AESIntDisable), (48 bytes).
    Removing aes.o(i.AESIntEnable), (48 bytes).
    Removing aes.o(i.AESIntRegister), (22 bytes).
    Removing aes.o(i.AESIntStatus), (80 bytes).
    Removing aes.o(i.AESIntUnregister), (18 bytes).
    Removing aes.o(i.AESKey1Set), (42 bytes).
    Removing aes.o(i.AESKey2Set), (42 bytes).
    Removing aes.o(i.AESKey3Set), (18 bytes).
    Removing aes.o(i.AESLengthSet), (6 bytes).
    Removing aes.o(i.AESReset), (28 bytes).
    Removing aes.o(i.AESTagRead), (30 bytes).
    Removing can.o(i.CANBitRateSet), (120 bytes).
    Removing can.o(i.CANBitTimingGet), (48 bytes).
    Removing can.o(i.CANBitTimingSet), (88 bytes).
    Removing can.o(i.CANDisable), (10 bytes).
    Removing can.o(i.CANEnable), (10 bytes).
    Removing can.o(i.CANErrCntrGet), (32 bytes).
    Removing can.o(i.CANInit), (82 bytes).
    Removing can.o(i.CANIntClear), (46 bytes).
    Removing can.o(i.CANIntDisable), (8 bytes).
    Removing can.o(i.CANIntEnable), (8 bytes).
    Removing can.o(i.CANIntRegister), (30 bytes).
    Removing can.o(i.CANIntStatus), (38 bytes).
    Removing can.o(i.CANIntUnregister), (26 bytes).
    Removing can.o(i.CANMessageClear), (30 bytes).
    Removing can.o(i.CANMessageGet), (382 bytes).
    Removing can.o(i.CANMessageSet), (384 bytes).
    Removing can.o(i.CANRetryGet), (18 bytes).
    Removing can.o(i.CANRetrySet), (20 bytes).
    Removing can.o(i.CANStatusGet), (78 bytes).
    Removing can.o(i._CANDataRegRead), (36 bytes).
    Removing can.o(i._CANDataRegWrite), (36 bytes).
    Removing can.o(i._CANIntNumberGet), (96 bytes).
    Removing can.o(.constdata), (32 bytes).
    Removing comp.o(i.ComparatorConfigure), (8 bytes).
    Removing comp.o(i.ComparatorIntClear), (8 bytes).
    Removing comp.o(i.ComparatorIntDisable), (12 bytes).
    Removing comp.o(i.ComparatorIntEnable), (12 bytes).
    Removing comp.o(i.ComparatorIntRegister), (38 bytes).
    Removing comp.o(i.ComparatorIntStatus), (24 bytes).
    Removing comp.o(i.ComparatorIntUnregister), (34 bytes).
    Removing comp.o(i.ComparatorRefSet), (4 bytes).
    Removing comp.o(i.ComparatorValueGet), (22 bytes).
    Removing crc.o(i.CRCConfigSet), (6 bytes).
    Removing crc.o(i.CRCDataProcess), (68 bytes).
    Removing crc.o(i.CRCDataWrite), (6 bytes).
    Removing crc.o(i.CRCResultRead), (16 bytes).
    Removing crc.o(i.CRCSeedSet), (6 bytes).
    Removing des.o(i.DESConfigSet), (12 bytes).
    Removing des.o(i.DESDMADisable), (8 bytes).
    Removing des.o(i.DESDMAEnable), (8 bytes).
    Removing des.o(i.DESDataProcess), (76 bytes).
    Removing des.o(i.DESDataRead), (32 bytes).
    Removing des.o(i.DESDataReadNonBlocking), (36 bytes).
    Removing des.o(i.DESDataWrite), (28 bytes).
    Removing des.o(i.DESDataWriteNonBlocking), (32 bytes).
    Removing des.o(i.DESIVSet), (26 bytes).
    Removing des.o(i.DESIntClear), (12 bytes).
    Removing des.o(i.DESIntDisable), (28 bytes).
    Removing des.o(i.DESIntEnable), (28 bytes).
    Removing des.o(i.DESIntRegister), (22 bytes).
    Removing des.o(i.DESIntStatus), (38 bytes).
    Removing des.o(i.DESIntUnregister), (18 bytes).
    Removing des.o(i.DESKeySet), (34 bytes).
    Removing des.o(i.DESLengthSet), (4 bytes).
    Removing des.o(i.DESReset), (22 bytes).
    Removing eeprom.o(i.EEPROMBlockCountGet), (16 bytes).
    Removing eeprom.o(i.EEPROMBlockHide), (16 bytes).
    Removing eeprom.o(i.EEPROMBlockLock), (24 bytes).
    Removing eeprom.o(i.EEPROMBlockPasswordSet), (52 bytes).
    Removing eeprom.o(i.EEPROMBlockProtectGet), (16 bytes).
    Removing eeprom.o(i.EEPROMBlockProtectSet), (32 bytes).
    Removing eeprom.o(i.EEPROMBlockUnlock), (48 bytes).
    Removing eeprom.o(i.EEPROMInit), (68 bytes).
    Removing eeprom.o(i.EEPROMIntClear), (56 bytes).
    Removing eeprom.o(i.EEPROMIntDisable), (36 bytes).
    Removing eeprom.o(i.EEPROMIntEnable), (36 bytes).
    Removing eeprom.o(i.EEPROMIntStatus), (48 bytes).
    Removing eeprom.o(i.EEPROMMassErase), (88 bytes).
    Removing eeprom.o(i.EEPROMProgram), (208 bytes).
    Removing eeprom.o(i.EEPROMProgramNonBlocking), (72 bytes).
    Removing eeprom.o(i.EEPROMRead), (56 bytes).
    Removing eeprom.o(i.EEPROMSizeGet), (16 bytes).
    Removing eeprom.o(i.EEPROMStatusGet), (12 bytes).
    Removing eeprom.o(i._EEPROMSectorMaskClear), (56 bytes).
    Removing eeprom.o(i._EEPROMSectorMaskSet), (64 bytes).
    Removing eeprom.o(i._EEPROMWaitForDone), (20 bytes).
    Removing emac.o(i.EMACAddrFilterGet), (14 bytes).
    Removing emac.o(i.EMACAddrFilterSet), (32 bytes).
    Removing emac.o(i.EMACAddrGet), (38 bytes).
    Removing emac.o(i.EMACAddrSet), (56 bytes).
    Removing emac.o(i.EMACConfigGet), (64 bytes).
    Removing emac.o(i.EMACConfigSet), (52 bytes).
    Removing emac.o(i.EMACDMAStateGet), (16 bytes).
    Removing emac.o(i.EMACFrameFilterGet), (16 bytes).
    Removing emac.o(i.EMACFrameFilterSet), (16 bytes).
    Removing emac.o(i.EMACHashFilterBitCalculate), (48 bytes).
    Removing emac.o(i.EMACHashFilterGet), (10 bytes).
    Removing emac.o(i.EMACHashFilterSet), (6 bytes).
    Removing emac.o(i.EMACInit), (168 bytes).
    Removing emac.o(i.EMACIntClear), (58 bytes).
    Removing emac.o(i.EMACIntDisable), (60 bytes).
    Removing emac.o(i.EMACIntEnable), (64 bytes).
    Removing emac.o(i.EMACIntRegister), (22 bytes).
    Removing emac.o(i.EMACIntStatus), (52 bytes).
    Removing emac.o(i.EMACIntUnregister), (18 bytes).
    Removing emac.o(i.EMACLPIConfig), (36 bytes).
    Removing emac.o(i.EMACLPIEnter), (10 bytes).
    Removing emac.o(i.EMACLPILinkClear), (10 bytes).
    Removing emac.o(i.EMACLPILinkSet), (10 bytes).
    Removing emac.o(i.EMACLPIStatus), (8 bytes).
    Removing emac.o(i.EMACNumAddrGet), (6 bytes).
    Removing emac.o(i.EMACPHYConfigSet), (108 bytes).
    Removing emac.o(i.EMACPHYExtendedRead), (64 bytes).
    Removing emac.o(i.EMACPHYExtendedWrite), (68 bytes).
    Removing emac.o(i.EMACPHYMMDRead), (64 bytes).
    Removing emac.o(i.EMACPHYMMDWrite), (68 bytes).
    Removing emac.o(i.EMACPHYPowerOff), (38 bytes).
    Removing emac.o(i.EMACPHYPowerOn), (38 bytes).
    Removing emac.o(i.EMACPHYRead), (50 bytes).
    Removing emac.o(i.EMACPHYWrite), (48 bytes).
    Removing emac.o(i.EMACPowerManagementControlGet), (12 bytes).
    Removing emac.o(i.EMACPowerManagementControlSet), (16 bytes).
    Removing emac.o(i.EMACPowerManagementStatusGet), (10 bytes).
    Removing emac.o(i.EMACRemoteWakeUpFrameFilterGet), (32 bytes).
    Removing emac.o(i.EMACRemoteWakeUpFrameFilterSet), (32 bytes).
    Removing emac.o(i.EMACReset), (28 bytes).
    Removing emac.o(i.EMACRxDMACurrentBufferGet), (8 bytes).
    Removing emac.o(i.EMACRxDMACurrentDescriptorGet), (8 bytes).
    Removing emac.o(i.EMACRxDMADescriptorListGet), (8 bytes).
    Removing emac.o(i.EMACRxDMADescriptorListSet), (6 bytes).
    Removing emac.o(i.EMACRxDMAPollDemand), (8 bytes).
    Removing emac.o(i.EMACRxDisable), (22 bytes).
    Removing emac.o(i.EMACRxEnable), (22 bytes).
    Removing emac.o(i.EMACRxWatchdogTimerSet), (6 bytes).
    Removing emac.o(i.EMACStatusGet), (6 bytes).
    Removing emac.o(i.EMACTimestampAddendSet), (32 bytes).
    Removing emac.o(i.EMACTimestampConfigGet), (16 bytes).
    Removing emac.o(i.EMACTimestampConfigSet), (24 bytes).
    Removing emac.o(i.EMACTimestampDisable), (14 bytes).
    Removing emac.o(i.EMACTimestampEnable), (36 bytes).
    Removing emac.o(i.EMACTimestampIntStatus), (8 bytes).
    Removing emac.o(i.EMACTimestampPPSCommand), (24 bytes).
    Removing emac.o(i.EMACTimestampPPSCommandModeSet), (24 bytes).
    Removing emac.o(i.EMACTimestampPPSPeriodSet), (10 bytes).
    Removing emac.o(i.EMACTimestampPPSSimpleModeSet), (20 bytes).
    Removing emac.o(i.EMACTimestampSysTimeGet), (28 bytes).
    Removing emac.o(i.EMACTimestampSysTimeSet), (36 bytes).
    Removing emac.o(i.EMACTimestampSysTimeUpdate), (50 bytes).
    Removing emac.o(i.EMACTimestampTargetIntDisable), (14 bytes).
    Removing emac.o(i.EMACTimestampTargetIntEnable), (14 bytes).
    Removing emac.o(i.EMACTimestampTargetSet), (24 bytes).
    Removing emac.o(i.EMACTxDMACurrentBufferGet), (8 bytes).
    Removing emac.o(i.EMACTxDMACurrentDescriptorGet), (8 bytes).
    Removing emac.o(i.EMACTxDMADescriptorListGet), (8 bytes).
    Removing emac.o(i.EMACTxDMADescriptorListSet), (6 bytes).
    Removing emac.o(i.EMACTxDMAPollDemand), (8 bytes).
    Removing emac.o(i.EMACTxDisable), (22 bytes).
    Removing emac.o(i.EMACTxEnable), (22 bytes).
    Removing emac.o(i.EMACTxFlush), (36 bytes).
    Removing emac.o(i.EMACVLANHashFilterBitCalculate), (42 bytes).
    Removing emac.o(i.EMACVLANHashFilterGet), (8 bytes).
    Removing emac.o(i.EMACVLANHashFilterSet), (6 bytes).
    Removing emac.o(i.EMACVLANRxConfigGet), (12 bytes).
    Removing emac.o(i.EMACVLANRxConfigSet), (8 bytes).
    Removing emac.o(i.EMACVLANTxConfigGet), (14 bytes).
    Removing emac.o(i.EMACVLANTxConfigSet), (10 bytes).
    Removing emac.o(i.EMACWoLEnter), (56 bytes).
    Removing emac.o(.constdata), (24 bytes).
    Removing epi.o(i.EPIAddressMapSet), (4 bytes).
    Removing epi.o(i.EPIConfigGPModeSet), (14 bytes).
    Removing epi.o(i.EPIConfigHB16CSSet), (48 bytes).
    Removing epi.o(i.EPIConfigHB16Set), (38 bytes).
    Removing epi.o(i.EPIConfigHB16TimingSet), (12 bytes).
    Removing epi.o(i.EPIConfigHB8CSSet), (48 bytes).
    Removing epi.o(i.EPIConfigHB8Set), (38 bytes).
    Removing epi.o(i.EPIConfigHB8TimingSet), (12 bytes).
    Removing epi.o(i.EPIConfigSDRAMSet), (16 bytes).
    Removing epi.o(i.EPIDMATxCount), (8 bytes).
    Removing epi.o(i.EPIDividerCSSet), (64 bytes).
    Removing epi.o(i.EPIDividerSet), (4 bytes).
    Removing epi.o(i.EPIFIFOConfig), (6 bytes).
    Removing epi.o(i.EPIIntDisable), (12 bytes).
    Removing epi.o(i.EPIIntEnable), (12 bytes).
    Removing epi.o(i.EPIIntErrorClear), (6 bytes).
    Removing epi.o(i.EPIIntErrorStatus), (8 bytes).
    Removing epi.o(i.EPIIntRegister), (30 bytes).
    Removing epi.o(i.EPIIntStatus), (16 bytes).
    Removing epi.o(i.EPIIntUnregister), (26 bytes).
    Removing epi.o(i.EPIModeSet), (4 bytes).
    Removing epi.o(i.EPINonBlockingReadAvail), (6 bytes).
    Removing epi.o(i.EPINonBlockingReadConfigure), (16 bytes).
    Removing epi.o(i.EPINonBlockingReadCount), (12 bytes).
    Removing epi.o(i.EPINonBlockingReadGet16), (30 bytes).
    Removing epi.o(i.EPINonBlockingReadGet32), (30 bytes).
    Removing epi.o(i.EPINonBlockingReadGet8), (30 bytes).
    Removing epi.o(i.EPINonBlockingReadStart), (12 bytes).
    Removing epi.o(i.EPINonBlockingReadStop), (14 bytes).
    Removing epi.o(i.EPIPSRAMConfigRegGet), (46 bytes).
    Removing epi.o(i.EPIPSRAMConfigRegGetNonBlocking), (52 bytes).
    Removing epi.o(i.EPIPSRAMConfigRegRead), (36 bytes).
    Removing epi.o(i.EPIPSRAMConfigRegSet), (44 bytes).
    Removing epi.o(i.EPIWriteFIFOCountGet), (8 bytes).
    Removing epi.o(i._EPIIntNumberGet), (36 bytes).
    Removing flash.o(i.FlashAllUserRegisterGet), (44 bytes).
    Removing flash.o(i.FlashAllUserRegisterSave), (48 bytes).
    Removing flash.o(i.FlashAllUserRegisterSet), (36 bytes).
    Removing flash.o(i.FlashErase), (64 bytes).
    Removing flash.o(i.FlashIntClear), (12 bytes).
    Removing flash.o(i.FlashIntDisable), (16 bytes).
    Removing flash.o(i.FlashIntEnable), (16 bytes).
    Removing flash.o(i.FlashIntRegister), (20 bytes).
    Removing flash.o(i.FlashIntStatus), (20 bytes).
    Removing flash.o(i.FlashIntUnregister), (16 bytes).
    Removing flash.o(i.FlashProgram), (112 bytes).
    Removing flash.o(i.FlashProtectGet), (88 bytes).
    Removing flash.o(i.FlashProtectSave), (48 bytes).
    Removing flash.o(i.FlashProtectSet), (144 bytes).
    Removing flash.o(i.FlashUserGet), (28 bytes).
    Removing flash.o(i.FlashUserSave), (64 bytes).
    Removing flash.o(i.FlashUserSet), (24 bytes).
    Removing flash.o(.constdata), (128 bytes).
    Removing fpu.o(i.FPUDisable), (20 bytes).
    Removing fpu.o(i.FPUEnable), (20 bytes).
    Removing fpu.o(i.FPUFlushToZeroModeSet), (20 bytes).
    Removing fpu.o(i.FPUHalfPrecisionModeSet), (20 bytes).
    Removing fpu.o(i.FPULazyStackingEnable), (20 bytes).
    Removing fpu.o(i.FPUNaNModeSet), (20 bytes).
    Removing fpu.o(i.FPURoundingModeSet), (20 bytes).
    Removing fpu.o(i.FPUStackingDisable), (20 bytes).
    Removing fpu.o(i.FPUStackingEnable), (24 bytes).
    Removing gpio.o(i.GPIOADCTriggerDisable), (12 bytes).
    Removing gpio.o(i.GPIOADCTriggerEnable), (12 bytes).
    Removing gpio.o(i.GPIODMATriggerDisable), (12 bytes).
    Removing gpio.o(i.GPIODMATriggerEnable), (12 bytes).
    Removing gpio.o(i.GPIODirModeGet), (46 bytes).
    Removing gpio.o(i.GPIOIntDisable), (12 bytes).
    Removing gpio.o(i.GPIOIntRegisterPin), (36 bytes).
    Removing gpio.o(i.GPIOIntTypeGet), (84 bytes).
    Removing gpio.o(i.GPIOIntUnregister), (26 bytes).
    Removing gpio.o(i.GPIOIntUnregisterPin), (28 bytes).
    Removing gpio.o(i.GPIOPadConfigGet), (244 bytes).
    Removing gpio.o(i.GPIOPinRead), (12 bytes).
    Removing gpio.o(i.GPIOPinTypeCAN), (30 bytes).
    Removing gpio.o(i.GPIOPinTypeComparator), (30 bytes).
    Removing gpio.o(i.GPIOPinTypeComparatorOutput), (30 bytes).
    Removing gpio.o(i.GPIOPinTypeDIVSCLK), (30 bytes).
    Removing gpio.o(i.GPIOPinTypeEPI), (30 bytes).
    Removing gpio.o(i.GPIOPinTypeEthernetLED), (30 bytes).
    Removing gpio.o(i.GPIOPinTypeEthernetMII), (30 bytes).
    Removing gpio.o(i.GPIOPinTypeGPIOOutputOD), (30 bytes).
    Removing gpio.o(i.GPIOPinTypeHibernateRTCCLK), (30 bytes).
    Removing gpio.o(i.GPIOPinTypeI2C), (30 bytes).
    Removing gpio.o(i.GPIOPinTypeI2CSCL), (30 bytes).
    Removing gpio.o(i.GPIOPinTypeLCD), (30 bytes).
    Removing gpio.o(i.GPIOPinTypeOneWire), (30 bytes).
    Removing gpio.o(i.GPIOPinTypePWM), (30 bytes).
    Removing gpio.o(i.GPIOPinTypeQEI), (30 bytes).
    Removing gpio.o(i.GPIOPinTypeTimer), (30 bytes).
    Removing gpio.o(i.GPIOPinTypeTrace), (30 bytes).
    Removing gpio.o(i.GPIOPinTypeUSBAnalog), (30 bytes).
    Removing gpio.o(i.GPIOPinTypeUSBDigital), (30 bytes).
    Removing gpio.o(i.GPIOPinTypeWakeHigh), (32 bytes).
    Removing gpio.o(i.GPIOPinTypeWakeLow), (32 bytes).
    Removing gpio.o(i.GPIOPinWakeStatus), (8 bytes).
    Removing gpio.o(i.GPIOUnlockPin), (24 bytes).
    Removing hibernate.o(i.HibernateBatCheckDone), (16 bytes).
    Removing hibernate.o(i.HibernateBatCheckStart), (24 bytes).
    Removing hibernate.o(i.HibernateCalendarGet), (124 bytes).
    Removing hibernate.o(i.HibernateCalendarMatchGet), (132 bytes).
    Removing hibernate.o(i.HibernateCalendarMatchSet), (20 bytes).
    Removing hibernate.o(i.HibernateCalendarSet), (20 bytes).
    Removing hibernate.o(i.HibernateClockConfig), (80 bytes).
    Removing hibernate.o(i.HibernateCounterMode), (20 bytes).
    Removing hibernate.o(i.HibernateDataGet), (32 bytes).
    Removing hibernate.o(i.HibernateDataSet), (40 bytes).
    Removing hibernate.o(i.HibernateDisable), (24 bytes).
    Removing hibernate.o(i.HibernateEnableExpClk), (28 bytes).
    Removing hibernate.o(i.HibernateGPIORetentionDisable), (28 bytes).
    Removing hibernate.o(i.HibernateGPIORetentionEnable), (28 bytes).
    Removing hibernate.o(i.HibernateGPIORetentionGet), (28 bytes).
    Removing hibernate.o(i.HibernateIntClear), (24 bytes).
    Removing hibernate.o(i.HibernateIntDisable), (24 bytes).
    Removing hibernate.o(i.HibernateIntEnable), (24 bytes).
    Removing hibernate.o(i.HibernateIntRegister), (26 bytes).
    Removing hibernate.o(i.HibernateIntStatus), (24 bytes).
    Removing hibernate.o(i.HibernateIntUnregister), (22 bytes).
    Removing hibernate.o(i.HibernateIsActive), (16 bytes).
    Removing hibernate.o(i.HibernateLowBatGet), (16 bytes).
    Removing hibernate.o(i.HibernateLowBatSet), (32 bytes).
    Removing hibernate.o(i.HibernateRTCDisable), (24 bytes).
    Removing hibernate.o(i.HibernateRTCEnable), (24 bytes).
    Removing hibernate.o(i.HibernateRTCGet), (12 bytes).
    Removing hibernate.o(i.HibernateRTCMatchGet), (12 bytes).
    Removing hibernate.o(i.HibernateRTCMatchSet), (20 bytes).
    Removing hibernate.o(i.HibernateRTCSSGet), (16 bytes).
    Removing hibernate.o(i.HibernateRTCSSMatchGet), (16 bytes).
    Removing hibernate.o(i.HibernateRTCSSMatchSet), (24 bytes).
    Removing hibernate.o(i.HibernateRTCSet), (48 bytes).
    Removing hibernate.o(i.HibernateRTCTrimGet), (12 bytes).
    Removing hibernate.o(i.HibernateRTCTrimSet), (20 bytes).
    Removing hibernate.o(i.HibernateRequest), (24 bytes).
    Removing hibernate.o(i.HibernateTamperDisable), (60 bytes).
    Removing hibernate.o(i.HibernateTamperEnable), (60 bytes).
    Removing hibernate.o(i.HibernateTamperEventsClear), (60 bytes).
    Removing hibernate.o(i.HibernateTamperEventsClearNoLock), (24 bytes).
    Removing hibernate.o(i.HibernateTamperEventsConfig), (64 bytes).
    Removing hibernate.o(i.HibernateTamperEventsGet), (104 bytes).
    Removing hibernate.o(i.HibernateTamperExtOscRecover), (60 bytes).
    Removing hibernate.o(i.HibernateTamperExtOscValid), (20 bytes).
    Removing hibernate.o(i.HibernateTamperIODisable), (68 bytes).
    Removing hibernate.o(i.HibernateTamperIOEnable), (84 bytes).
    Removing hibernate.o(i.HibernateTamperLock), (24 bytes).
    Removing hibernate.o(i.HibernateTamperStatusGet), (60 bytes).
    Removing hibernate.o(i.HibernateTamperUnLock), (24 bytes).
    Removing hibernate.o(i.HibernateWakeGet), (64 bytes).
    Removing hibernate.o(i.HibernateWakeSet), (124 bytes).
    Removing hibernate.o(i._HibernateCalendarSet), (256 bytes).
    Removing hibernate.o(i._HibernateIntNumberGet), (36 bytes).
    Removing hibernate.o(i._HibernateWriteComplete), (20 bytes).
    Removing i2c.o(i.I2CFIFODataGet), (22 bytes).
    Removing i2c.o(i.I2CFIFODataGetNonBlocking), (26 bytes).
    Removing i2c.o(i.I2CFIFODataPut), (20 bytes).
    Removing i2c.o(i.I2CFIFODataPutNonBlocking), (24 bytes).
    Removing i2c.o(i.I2CFIFOStatus), (8 bytes).
    Removing i2c.o(i.I2CIntRegister), (30 bytes).
    Removing i2c.o(i.I2CIntUnregister), (26 bytes).
    Removing i2c.o(i.I2CLoopbackEnable), (10 bytes).
    Removing i2c.o(i.I2CMasterBurstCountGet), (6 bytes).
    Removing i2c.o(i.I2CMasterBurstLengthSet), (4 bytes).
    Removing i2c.o(i.I2CMasterBusBusy), (18 bytes).
    Removing i2c.o(i.I2CMasterBusy), (18 bytes).
    Removing i2c.o(i.I2CMasterControl), (4 bytes).
    Removing i2c.o(i.I2CMasterDataGet), (6 bytes).
    Removing i2c.o(i.I2CMasterDataPut), (4 bytes).
    Removing i2c.o(i.I2CMasterDisable), (10 bytes).
    Removing i2c.o(i.I2CMasterEnable), (10 bytes).
    Removing i2c.o(i.I2CMasterErr), (30 bytes).
    Removing i2c.o(i.I2CMasterGlitchFilterConfigSet), (68 bytes).
    Removing i2c.o(i.I2CMasterInitExpClk), (92 bytes).
    Removing i2c.o(i.I2CMasterIntClear), (8 bytes).
    Removing i2c.o(i.I2CMasterIntClearEx), (4 bytes).
    Removing i2c.o(i.I2CMasterIntDisable), (6 bytes).
    Removing i2c.o(i.I2CMasterIntDisableEx), (8 bytes).
    Removing i2c.o(i.I2CMasterIntEnable), (6 bytes).
    Removing i2c.o(i.I2CMasterIntEnableEx), (8 bytes).
    Removing i2c.o(i.I2CMasterIntStatus), (28 bytes).
    Removing i2c.o(i.I2CMasterIntStatusEx), (12 bytes).
    Removing i2c.o(i.I2CMasterLineStateGet), (6 bytes).
    Removing i2c.o(i.I2CMasterSlaveAddrSet), (8 bytes).
    Removing i2c.o(i.I2CMasterTimeoutSet), (4 bytes).
    Removing i2c.o(i.I2CRxFIFOConfigSet), (22 bytes).
    Removing i2c.o(i.I2CRxFIFOFlush), (14 bytes).
    Removing i2c.o(i.I2CSlaveACKOverride), (30 bytes).
    Removing i2c.o(i.I2CSlaveACKValueSet), (30 bytes).
    Removing i2c.o(i.I2CSlaveAddressSet), (28 bytes).
    Removing i2c.o(i.I2CSlaveDataGet), (8 bytes).
    Removing i2c.o(i.I2CSlaveDataPut), (6 bytes).
    Removing i2c.o(i.I2CSlaveDisable), (16 bytes).
    Removing i2c.o(i.I2CSlaveEnable), (16 bytes).
    Removing i2c.o(i.I2CSlaveFIFODisable), (8 bytes).
    Removing i2c.o(i.I2CSlaveFIFOEnable), (10 bytes).
    Removing i2c.o(i.I2CSlaveInit), (18 bytes).
    Removing i2c.o(i.I2CSlaveIntClear), (8 bytes).
    Removing i2c.o(i.I2CSlaveIntClearEx), (6 bytes).
    Removing i2c.o(i.I2CSlaveIntDisable), (14 bytes).
    Removing i2c.o(i.I2CSlaveIntDisableEx), (12 bytes).
    Removing i2c.o(i.I2CSlaveIntEnable), (14 bytes).
    Removing i2c.o(i.I2CSlaveIntEnableEx), (12 bytes).
    Removing i2c.o(i.I2CSlaveIntStatus), (32 bytes).
    Removing i2c.o(i.I2CSlaveIntStatusEx), (16 bytes).
    Removing i2c.o(i.I2CSlaveStatus), (8 bytes).
    Removing i2c.o(i.I2CTxFIFOConfigSet), (24 bytes).
    Removing i2c.o(i.I2CTxFIFOFlush), (14 bytes).
    Removing i2c.o(i._I2CIntNumberGet), (76 bytes).
    Removing i2c.o(.constdata), (128 bytes).
    Removing interrupt.o(i.IntDisable), (116 bytes).
    Removing interrupt.o(i.IntIsEnabled), (108 bytes).
    Removing interrupt.o(i.IntMasterDisable), (16 bytes).
    Removing interrupt.o(i.IntPendClear), (76 bytes).
    Removing interrupt.o(i.IntPendSet), (96 bytes).
    Removing interrupt.o(i.IntPriorityGet), (28 bytes).
    Removing interrupt.o(i.IntPriorityGroupingGet), (44 bytes).
    Removing interrupt.o(i.IntPriorityGroupingSet), (28 bytes).
    Removing interrupt.o(i.IntPriorityMaskGet), (8 bytes).
    Removing interrupt.o(i.IntPriorityMaskSet), (12 bytes).
    Removing interrupt.o(i.IntPrioritySet), (52 bytes).
    Removing interrupt.o(i.IntTrigger), (16 bytes).
    Removing interrupt.o(i.IntUnregister), (20 bytes).
    Removing interrupt.o(i._IntDefaultHandler), (4 bytes).
    Removing lcd.o(i.LCDClockReset), (36 bytes).
    Removing lcd.o(i.LCDDMAConfigSet), (4 bytes).
    Removing lcd.o(i.LCDIDDCommandWrite), (16 bytes).
    Removing lcd.o(i.LCDIDDConfigSet), (4 bytes).
    Removing lcd.o(i.LCDIDDDMADisable), (10 bytes).
    Removing lcd.o(i.LCDIDDDMAWrite), (50 bytes).
    Removing lcd.o(i.LCDIDDDataRead), (18 bytes).
    Removing lcd.o(i.LCDIDDDataWrite), (16 bytes).
    Removing lcd.o(i.LCDIDDIndexedRead), (32 bytes).
    Removing lcd.o(i.LCDIDDIndexedWrite), (28 bytes).
    Removing lcd.o(i.LCDIDDStatusRead), (18 bytes).
    Removing lcd.o(i.LCDIDDTimingSet), (54 bytes).
    Removing lcd.o(i.LCDIntClear), (4 bytes).
    Removing lcd.o(i.LCDIntDisable), (4 bytes).
    Removing lcd.o(i.LCDIntEnable), (4 bytes).
    Removing lcd.o(i.LCDIntRegister), (22 bytes).
    Removing lcd.o(i.LCDIntStatus), (12 bytes).
    Removing lcd.o(i.LCDIntUnregister), (18 bytes).
    Removing lcd.o(i.LCDModeSet), (36 bytes).
    Removing lcd.o(i.LCDRasterACBiasIntCountSet), (22 bytes).
    Removing lcd.o(i.LCDRasterConfigSet), (8 bytes).
    Removing lcd.o(i.LCDRasterDisable), (10 bytes).
    Removing lcd.o(i.LCDRasterEnable), (22 bytes).
    Removing lcd.o(i.LCDRasterEnabled), (10 bytes).
    Removing lcd.o(i.LCDRasterFrameBufferSet), (24 bytes).
    Removing lcd.o(i.LCDRasterPaletteSet), (126 bytes).
    Removing lcd.o(i.LCDRasterSubPanelConfigSet), (48 bytes).
    Removing lcd.o(i.LCDRasterSubPanelDisable), (10 bytes).
    Removing lcd.o(i.LCDRasterSubPanelEnable), (10 bytes).
    Removing lcd.o(i.LCDRasterTimingSet), (158 bytes).
    Removing mpu.o(i.MPUDisable), (20 bytes).
    Removing mpu.o(i.MPUEnable), (16 bytes).
    Removing mpu.o(i.MPUIntRegister), (20 bytes).
    Removing mpu.o(i.MPUIntUnregister), (16 bytes).
    Removing mpu.o(i.MPURegionCountGet), (16 bytes).
    Removing mpu.o(i.MPURegionDisable), (28 bytes).
    Removing mpu.o(i.MPURegionEnable), (28 bytes).
    Removing mpu.o(i.MPURegionGet), (28 bytes).
    Removing mpu.o(i.MPURegionSet), (32 bytes).
    Removing onewire.o(i.OneWireBusReset), (10 bytes).
    Removing onewire.o(i.OneWireBusStatus), (10 bytes).
    Removing onewire.o(i.OneWireDMADisable), (28 bytes).
    Removing onewire.o(i.OneWireDMAEnable), (84 bytes).
    Removing onewire.o(i.OneWireDataGet), (18 bytes).
    Removing onewire.o(i.OneWireDataGetNonBlocking), (22 bytes).
    Removing onewire.o(i.OneWireInit), (4 bytes).
    Removing onewire.o(i.OneWireIntClear), (6 bytes).
    Removing onewire.o(i.OneWireIntDisable), (12 bytes).
    Removing onewire.o(i.OneWireIntEnable), (12 bytes).
    Removing onewire.o(i.OneWireIntRegister), (30 bytes).
    Removing onewire.o(i.OneWireIntStatus), (16 bytes).
    Removing onewire.o(i.OneWireIntUnregister), (26 bytes).
    Removing onewire.o(i.OneWireTransaction), (68 bytes).
    Removing onewire.o(i._OneWireIntNumberGet), (36 bytes).
    Removing pwm.o(i.PWMClockGet), (28 bytes).
    Removing pwm.o(i.PWMClockSet), (18 bytes).
    Removing pwm.o(i.PWMDeadBandDisable), (14 bytes).
    Removing pwm.o(i.PWMDeadBandEnable), (18 bytes).
    Removing pwm.o(i.PWMFaultIntClear), (8 bytes).
    Removing pwm.o(i.PWMFaultIntClearExt), (4 bytes).
    Removing pwm.o(i.PWMFaultIntRegister), (30 bytes).
    Removing pwm.o(i.PWMFaultIntUnregister), (26 bytes).
    Removing pwm.o(i.PWMGenConfigure), (48 bytes).
    Removing pwm.o(i.PWMGenDisable), (10 bytes).
    Removing pwm.o(i.PWMGenEnable), (10 bytes).
    Removing pwm.o(i.PWMGenFaultClear), (36 bytes).
    Removing pwm.o(i.PWMGenFaultConfigure), (20 bytes).
    Removing pwm.o(i.PWMGenFaultStatus), (38 bytes).
    Removing pwm.o(i.PWMGenFaultTriggerGet), (16 bytes).
    Removing pwm.o(i.PWMGenFaultTriggerSet), (16 bytes).
    Removing pwm.o(i.PWMGenIntClear), (6 bytes).
    Removing pwm.o(i.PWMGenIntRegister), (38 bytes).
    Removing pwm.o(i.PWMGenIntStatus), (16 bytes).
    Removing pwm.o(i.PWMGenIntTrigDisable), (14 bytes).
    Removing pwm.o(i.PWMGenIntTrigEnable), (14 bytes).
    Removing pwm.o(i.PWMGenIntUnregister), (30 bytes).
    Removing pwm.o(i.PWMGenPeriodGet), (24 bytes).
    Removing pwm.o(i.PWMGenPeriodSet), (22 bytes).
    Removing pwm.o(i.PWMIntDisable), (8 bytes).
    Removing pwm.o(i.PWMIntEnable), (8 bytes).
    Removing pwm.o(i.PWMIntStatus), (14 bytes).
    Removing pwm.o(i.PWMOutputFault), (20 bytes).
    Removing pwm.o(i.PWMOutputFaultLevel), (20 bytes).
    Removing pwm.o(i.PWMOutputInvert), (20 bytes).
    Removing pwm.o(i.PWMOutputState), (20 bytes).
    Removing pwm.o(i.PWMOutputUpdateMode), (82 bytes).
    Removing pwm.o(i.PWMPulseWidthGet), (40 bytes).
    Removing pwm.o(i.PWMPulseWidthSet), (38 bytes).
    Removing pwm.o(i.PWMSyncTimeBase), (4 bytes).
    Removing pwm.o(i.PWMSyncUpdate), (4 bytes).
    Removing pwm.o(i._PWMFaultIntNumberGet), (84 bytes).
    Removing pwm.o(i._PWMGenIntNumberGet), (272 bytes).
    Removing qei.o(i.QEIConfigure), (14 bytes).
    Removing qei.o(i.QEIDirectionGet), (20 bytes).
    Removing qei.o(i.QEIDisable), (10 bytes).
    Removing qei.o(i.QEIEnable), (10 bytes).
    Removing qei.o(i.QEIErrorGet), (10 bytes).
    Removing qei.o(i.QEIFilterConfigure), (12 bytes).
    Removing qei.o(i.QEIFilterDisable), (10 bytes).
    Removing qei.o(i.QEIFilterEnable), (10 bytes).
    Removing qei.o(i.QEIIntClear), (4 bytes).
    Removing qei.o(i.QEIIntDisable), (8 bytes).
    Removing qei.o(i.QEIIntEnable), (8 bytes).
    Removing qei.o(i.QEIIntRegister), (30 bytes).
    Removing qei.o(i.QEIIntStatus), (12 bytes).
    Removing qei.o(i.QEIIntUnregister), (26 bytes).
    Removing qei.o(i.QEIPositionGet), (6 bytes).
    Removing qei.o(i.QEIPositionSet), (4 bytes).
    Removing qei.o(i.QEIVelocityConfigure), (16 bytes).
    Removing qei.o(i.QEIVelocityDisable), (10 bytes).
    Removing qei.o(i.QEIVelocityEnable), (10 bytes).
    Removing qei.o(i.QEIVelocityGet), (6 bytes).
    Removing qei.o(i._QEIIntNumberGet), (84 bytes).
    Removing shamd5.o(i.SHAMD5ConfigSet), (4 bytes).
    Removing shamd5.o(i.SHAMD5DMADisable), (14 bytes).
    Removing shamd5.o(i.SHAMD5DMAEnable), (14 bytes).
    Removing shamd5.o(i.SHAMD5DataProcess), (70 bytes).
    Removing shamd5.o(i.SHAMD5DataWrite), (38 bytes).
    Removing shamd5.o(i.SHAMD5DataWriteNonBlocking), (42 bytes).
    Removing shamd5.o(i.SHAMD5HMACKeySet), (24 bytes).
    Removing shamd5.o(i.SHAMD5HMACPPKeyGenerate), (74 bytes).
    Removing shamd5.o(i.SHAMD5HMACPPKeySet), (28 bytes).
    Removing shamd5.o(i.SHAMD5HMACProcess), (70 bytes).
    Removing shamd5.o(i.SHAMD5HashLengthSet), (4 bytes).
    Removing shamd5.o(i.SHAMD5IntClear), (22 bytes).
    Removing shamd5.o(i.SHAMD5IntDisable), (60 bytes).
    Removing shamd5.o(i.SHAMD5IntEnable), (54 bytes).
    Removing shamd5.o(i.SHAMD5IntRegister), (22 bytes).
    Removing shamd5.o(i.SHAMD5IntStatus), (84 bytes).
    Removing shamd5.o(i.SHAMD5IntUnregister), (18 bytes).
    Removing shamd5.o(i.SHAMD5Reset), (40 bytes).
    Removing shamd5.o(i.SHAMD5ResultRead), (70 bytes).
    Removing shamd5.o(i._SHAMD5DataWriteMultiple), (80 bytes).
    Removing ssi.o(i.SSIAdvDataPutFrameEnd), (24 bytes).
    Removing ssi.o(i.SSIAdvDataPutFrameEndNonBlocking), (28 bytes).
    Removing ssi.o(i.SSIAdvFrameHoldDisable), (10 bytes).
    Removing ssi.o(i.SSIAdvFrameHoldEnable), (10 bytes).
    Removing ssi.o(i.SSIAdvModeSet), (12 bytes).
    Removing ssi.o(i.SSIClockSourceGet), (8 bytes).
    Removing ssi.o(i.SSIClockSourceSet), (6 bytes).
    Removing ssi.o(i.SSIDMADisable), (8 bytes).
    Removing ssi.o(i.SSIDMAEnable), (8 bytes).
    Removing ssi.o(i.SSIDataGet), (18 bytes).
    Removing ssi.o(i.SSIDataGetNonBlocking), (22 bytes).
    Removing ssi.o(i.SSIDataPutNonBlocking), (20 bytes).
    Removing ssi.o(i.SSIDisable), (10 bytes).
    Removing ssi.o(i.SSIIntClear), (4 bytes).
    Removing ssi.o(i.SSIIntDisable), (8 bytes).
    Removing ssi.o(i.SSIIntEnable), (8 bytes).
    Removing ssi.o(i.SSIIntRegister), (30 bytes).
    Removing ssi.o(i.SSIIntStatus), (12 bytes).
    Removing ssi.o(i.SSIIntUnregister), (26 bytes).
    Removing ssi.o(i.SSILoopbackDisable), (10 bytes).
    Removing ssi.o(i.SSILoopbackEnable), (10 bytes).
    Removing ssi.o(i._SSIIntNumberGet), (76 bytes).
    Removing ssi.o(.constdata), (64 bytes).
    Removing sw_crc.o(i.Crc16), (208 bytes).
    Removing sw_crc.o(i.Crc16Array), (18 bytes).
    Removing sw_crc.o(i.Crc16Array3), (156 bytes).
    Removing sw_crc.o(i.Crc32), (208 bytes).
    Removing sw_crc.o(i.Crc8CCITT), (140 bytes).
    Removing sw_crc.o(.constdata), (1792 bytes).
    Removing sysctl.o(i.SysCtlAltClkConfig), (12 bytes).
    Removing sysctl.o(i.SysCtlClockFreqSet), (708 bytes).
    Removing sysctl.o(i.SysCtlClockOutConfig), (16 bytes).
    Removing sysctl.o(i.SysCtlDeepSleep), (36 bytes).
    Removing sysctl.o(i.SysCtlDeepSleepClockConfigSet), (124 bytes).
    Removing sysctl.o(i.SysCtlDeepSleepClockSet), (12 bytes).
    Removing sysctl.o(i.SysCtlDeepSleepPowerSet), (12 bytes).
    Removing sysctl.o(i.SysCtlFlashSectorSizeGet), (52 bytes).
    Removing sysctl.o(i.SysCtlFlashSizeGet), (56 bytes).
    Removing sysctl.o(i.SysCtlGPIOAHBDisable), (24 bytes).
    Removing sysctl.o(i.SysCtlGPIOAHBEnable), (24 bytes).
    Removing sysctl.o(i.SysCtlIntClear), (12 bytes).
    Removing sysctl.o(i.SysCtlIntDisable), (16 bytes).
    Removing sysctl.o(i.SysCtlIntEnable), (16 bytes).
    Removing sysctl.o(i.SysCtlIntRegister), (20 bytes).
    Removing sysctl.o(i.SysCtlIntStatus), (20 bytes).
    Removing sysctl.o(i.SysCtlIntUnregister), (16 bytes).
    Removing sysctl.o(i.SysCtlLDODeepSleepGet), (12 bytes).
    Removing sysctl.o(i.SysCtlLDODeepSleepSet), (12 bytes).
    Removing sysctl.o(i.SysCtlLDOSleepGet), (12 bytes).
    Removing sysctl.o(i.SysCtlLDOSleepSet), (12 bytes).
    Removing sysctl.o(i.SysCtlMOSCConfigSet), (12 bytes).
    Removing sysctl.o(i.SysCtlNMIClear), (16 bytes).
    Removing sysctl.o(i.SysCtlNMIStatus), (12 bytes).
    Removing sysctl.o(i.SysCtlPIOSCCalibrate), (92 bytes).
    Removing sysctl.o(i.SysCtlPWMClockGet), (28 bytes).
    Removing sysctl.o(i.SysCtlPeripheralClockGating), (96 bytes).
    Removing sysctl.o(i.SysCtlPeripheralDeepSleepDisable), (52 bytes).
    Removing sysctl.o(i.SysCtlPeripheralDeepSleepEnable), (52 bytes).
    Removing sysctl.o(i.SysCtlPeripheralDisable), (52 bytes).
    Removing sysctl.o(i.SysCtlPeripheralPowerOn), (52 bytes).
    Removing sysctl.o(i.SysCtlPeripheralPresent), (56 bytes).
    Removing sysctl.o(i.SysCtlPeripheralReady), (56 bytes).
    Removing sysctl.o(i.SysCtlPeripheralReset), (112 bytes).
    Removing sysctl.o(i.SysCtlPeripheralSleepDisable), (52 bytes).
    Removing sysctl.o(i.SysCtlPeripheralSleepEnable), (52 bytes).
    Removing sysctl.o(i.SysCtlReset), (20 bytes).
    Removing sysctl.o(i.SysCtlResetBehaviorGet), (12 bytes).
    Removing sysctl.o(i.SysCtlResetBehaviorSet), (12 bytes).
    Removing sysctl.o(i.SysCtlResetCauseClear), (16 bytes).
    Removing sysctl.o(i.SysCtlResetCauseGet), (12 bytes).
    Removing sysctl.o(i.SysCtlSRAMSizeGet), (16 bytes).
    Removing sysctl.o(i.SysCtlSleep), (8 bytes).
    Removing sysctl.o(i.SysCtlSleepPowerSet), (12 bytes).
    Removing sysctl.o(i.SysCtlUSBPLLDisable), (20 bytes).
    Removing sysctl.o(i.SysCtlUSBPLLEnable), (20 bytes).
    Removing sysctl.o(i.SysCtlVCOGet), (148 bytes).
    Removing sysctl.o(i.SysCtlVoltageEventClear), (16 bytes).
    Removing sysctl.o(i.SysCtlVoltageEventConfig), (12 bytes).
    Removing sysctl.o(i.SysCtlVoltageEventStatus), (12 bytes).
    Removing sysctl.o(i._SysCtlFrequencyGet), (100 bytes).
    Removing sysctl.o(i._SysCtlMemTimingGet), (40 bytes).
    Removing sysexc.o(i.SysExcIntClear), (12 bytes).
    Removing sysexc.o(i.SysExcIntDisable), (16 bytes).
    Removing sysexc.o(i.SysExcIntEnable), (16 bytes).
    Removing sysexc.o(i.SysExcIntRegister), (26 bytes).
    Removing sysexc.o(i.SysExcIntStatus), (20 bytes).
    Removing sysexc.o(i.SysExcIntUnregister), (22 bytes).
    Removing sysexc.o(i._SysExcIntNumberGet), (56 bytes).
    Removing systick.o(i.SysTickDisable), (18 bytes).
    Removing systick.o(i.SysTickEnable), (18 bytes).
    Removing systick.o(i.SysTickIntDisable), (18 bytes).
    Removing systick.o(i.SysTickIntEnable), (18 bytes).
    Removing systick.o(i.SysTickIntRegister), (30 bytes).
    Removing systick.o(i.SysTickIntUnregister), (26 bytes).
    Removing systick.o(i.SysTickPeriodGet), (10 bytes).
    Removing systick.o(i.SysTickPeriodSet), (10 bytes).
    Removing systick.o(i.SysTickValueGet), (8 bytes).
    Removing timer.o(i.TimerADCEventGet), (6 bytes).
    Removing timer.o(i.TimerADCEventSet), (4 bytes).
    Removing timer.o(i.TimerClockSourceGet), (8 bytes).
    Removing timer.o(i.TimerClockSourceSet), (6 bytes).
    Removing timer.o(i.TimerControlEvent), (22 bytes).
    Removing timer.o(i.TimerControlLevel), (22 bytes).
    Removing timer.o(i.TimerControlStall), (22 bytes).
    Removing timer.o(i.TimerControlWaitOnTrigger), (52 bytes).
    Removing timer.o(i.TimerDMAEventGet), (6 bytes).
    Removing timer.o(i.TimerDMAEventSet), (4 bytes).
    Removing timer.o(i.TimerDisable), (14 bytes).
    Removing timer.o(i.TimerIntClear), (4 bytes).
    Removing timer.o(i.TimerIntDisable), (8 bytes).
    Removing timer.o(i.TimerIntEnable), (8 bytes).
    Removing timer.o(i.TimerIntRegister), (38 bytes).
    Removing timer.o(i.TimerIntStatus), (12 bytes).
    Removing timer.o(i.TimerIntUnregister), (30 bytes).
    Removing timer.o(i.TimerLoadGet), (14 bytes).
    Removing timer.o(i.TimerLoadGet64), (26 bytes).
    Removing timer.o(i.TimerLoadSet), (16 bytes).
    Removing timer.o(i.TimerLoadSet64), (6 bytes).
    Removing timer.o(i.TimerMatchGet), (14 bytes).
    Removing timer.o(i.TimerMatchGet64), (26 bytes).
    Removing timer.o(i.TimerMatchSet), (16 bytes).
    Removing timer.o(i.TimerMatchSet64), (6 bytes).
    Removing timer.o(i.TimerPrescaleGet), (14 bytes).
    Removing timer.o(i.TimerPrescaleMatchGet), (14 bytes).
    Removing timer.o(i.TimerPrescaleMatchSet), (16 bytes).
    Removing timer.o(i.TimerPrescaleSet), (16 bytes).
    Removing timer.o(i.TimerRTCDisable), (10 bytes).
    Removing timer.o(i.TimerRTCEnable), (10 bytes).
    Removing timer.o(i.TimerSynchronize), (4 bytes).
    Removing timer.o(i.TimerUpdateMode), (42 bytes).
    Removing timer.o(i.TimerValueGet), (14 bytes).
    Removing timer.o(i.TimerValueGet64), (26 bytes).
    Removing timer.o(i._TimerIntNumberGet), (88 bytes).
    Removing timer.o(.constdata), (160 bytes).
    Removing uart_1.o(i.UART9BitAddrSend), (44 bytes).
    Removing uart_1.o(i.UART9BitAddrSet), (10 bytes).
    Removing uart_1.o(i.UART9BitDisable), (14 bytes).
    Removing uart_1.o(i.UART9BitEnable), (14 bytes).
    Removing uart_1.o(i.UARTBreakCtl), (20 bytes).
    Removing uart_1.o(i.UARTBusy), (10 bytes).
    Removing uart_1.o(i.UARTCharGet), (18 bytes).
    Removing uart_1.o(i.UARTCharGetNonBlocking), (20 bytes).
    Removing uart_1.o(i.UARTCharPut), (16 bytes).
    Removing uart_1.o(i.UARTCharPutNonBlocking), (20 bytes).
    Removing uart_1.o(i.UARTCharsAvail), (12 bytes).
    Removing uart_1.o(i.UARTClockSourceGet), (8 bytes).
    Removing uart_1.o(i.UARTClockSourceSet), (6 bytes).
    Removing uart_1.o(i.UARTConfigGetExpClk), (44 bytes).
    Removing uart_1.o(i.UARTConfigSetExpClk), (76 bytes).
    Removing uart_1.o(i.UARTDMADisable), (8 bytes).
    Removing uart_1.o(i.UARTDMAEnable), (8 bytes).
    Removing uart_1.o(i.UARTDisable), (32 bytes).
    Removing uart_1.o(i.UARTDisableSIR), (10 bytes).
    Removing uart_1.o(i.UARTEnable), (20 bytes).
    Removing uart_1.o(i.UARTEnableSIR), (22 bytes).
    Removing uart_1.o(i.UARTFIFODisable), (10 bytes).
    Removing uart_1.o(i.UARTFIFOEnable), (10 bytes).
    Removing uart_1.o(i.UARTFIFOLevelGet), (18 bytes).
    Removing uart_1.o(i.UARTFIFOLevelSet), (8 bytes).
    Removing uart_1.o(i.UARTFlowControlGet), (10 bytes).
    Removing uart_1.o(i.UARTFlowControlSet), (12 bytes).
    Removing uart_1.o(i.UARTIntClear), (4 bytes).
    Removing uart_1.o(i.UARTIntDisable), (8 bytes).
    Removing uart_1.o(i.UARTIntEnable), (8 bytes).
    Removing uart_1.o(i.UARTIntRegister), (30 bytes).
    Removing uart_1.o(i.UARTIntStatus), (12 bytes).
    Removing uart_1.o(i.UARTIntUnregister), (26 bytes).
    Removing uart_1.o(i.UARTLoopbackEnable), (10 bytes).
    Removing uart_1.o(i.UARTModemControlClear), (12 bytes).
    Removing uart_1.o(i.UARTModemControlGet), (10 bytes).
    Removing uart_1.o(i.UARTModemControlSet), (12 bytes).
    Removing uart_1.o(i.UARTModemStatusGet), (12 bytes).
    Removing uart_1.o(i.UARTParityModeGet), (10 bytes).
    Removing uart_1.o(i.UARTParityModeSet), (12 bytes).
    Removing uart_1.o(i.UARTRxErrorClear), (6 bytes).
    Removing uart_1.o(i.UARTRxErrorGet), (10 bytes).
    Removing uart_1.o(i.UARTSmartCardDisable), (10 bytes).
    Removing uart_1.o(i.UARTSmartCardEnable), (22 bytes).
    Removing uart_1.o(i.UARTSpaceAvail), (12 bytes).
    Removing uart_1.o(i.UARTTxIntModeGet), (10 bytes).
    Removing uart_1.o(i.UARTTxIntModeSet), (12 bytes).
    Removing uart_1.o(i._UARTIntNumberGet), (76 bytes).
    Removing uart_1.o(.constdata), (128 bytes).
    Removing udma.o(i.uDMAChannelAssign), (40 bytes).
    Removing udma.o(i.uDMAChannelAttributeDisable), (68 bytes).
    Removing udma.o(i.uDMAChannelAttributeEnable), (68 bytes).
    Removing udma.o(i.uDMAChannelAttributeGet), (80 bytes).
    Removing udma.o(i.uDMAChannelControlSet), (40 bytes).
    Removing udma.o(i.uDMAChannelDisable), (20 bytes).
    Removing udma.o(i.uDMAChannelEnable), (20 bytes).
    Removing udma.o(i.uDMAChannelIsEnabled), (32 bytes).
    Removing udma.o(i.uDMAChannelModeGet), (48 bytes).
    Removing udma.o(i.uDMAChannelRequest), (20 bytes).
    Removing udma.o(i.uDMAChannelScatterGatherSet), (92 bytes).
    Removing udma.o(i.uDMAChannelSelectDefault), (16 bytes).
    Removing udma.o(i.uDMAChannelSelectSecondary), (16 bytes).
    Removing udma.o(i.uDMAChannelSizeGet), (44 bytes).
    Removing udma.o(i.uDMAChannelTransferSet), (176 bytes).
    Removing udma.o(i.uDMAControlAlternateBaseGet), (12 bytes).
    Removing udma.o(i.uDMAControlBaseGet), (12 bytes).
    Removing udma.o(i.uDMAControlBaseSet), (12 bytes).
    Removing udma.o(i.uDMADisable), (12 bytes).
    Removing udma.o(i.uDMAEnable), (12 bytes).
    Removing udma.o(i.uDMAErrorStatusClear), (12 bytes).
    Removing udma.o(i.uDMAErrorStatusGet), (12 bytes).
    Removing udma.o(i.uDMAIntClear), (12 bytes).
    Removing udma.o(i.uDMAIntRegister), (22 bytes).
    Removing udma.o(i.uDMAIntStatus), (12 bytes).
    Removing udma.o(i.uDMAIntUnregister), (18 bytes).
    Removing usb.o(i.USBClockDisable), (8 bytes).
    Removing usb.o(i.USBClockEnable), (10 bytes).
    Removing usb.o(i.USBControllerVersion), (12 bytes).
    Removing usb.o(i.USBDMAChannelAddressGet), (12 bytes).
    Removing usb.o(i.USBDMAChannelAddressSet), (12 bytes).
    Removing usb.o(i.USBDMAChannelConfigSet), (26 bytes).
    Removing usb.o(i.USBDMAChannelCountGet), (12 bytes).
    Removing usb.o(i.USBDMAChannelCountSet), (12 bytes).
    Removing usb.o(i.USBDMAChannelDisable), (24 bytes).
    Removing usb.o(i.USBDMAChannelEnable), (24 bytes).
    Removing usb.o(i.USBDMAChannelIntDisable), (24 bytes).
    Removing usb.o(i.USBDMAChannelIntEnable), (24 bytes).
    Removing usb.o(i.USBDMAChannelIntStatus), (8 bytes).
    Removing usb.o(i.USBDMAChannelStatus), (16 bytes).
    Removing usb.o(i.USBDMAChannelStatusClear), (26 bytes).
    Removing usb.o(i.USBDMANumChannels), (10 bytes).
    Removing usb.o(i.USBDevAddrGet), (6 bytes).
    Removing usb.o(i.USBDevAddrSet), (4 bytes).
    Removing usb.o(i.USBDevConnect), (10 bytes).
    Removing usb.o(i.USBDevDisconnect), (10 bytes).
    Removing usb.o(i.USBDevEndpointConfigGet), (200 bytes).
    Removing usb.o(i.USBDevEndpointConfigSet), (174 bytes).
    Removing usb.o(i.USBDevEndpointDataAck), (44 bytes).
    Removing usb.o(i.USBDevEndpointStall), (68 bytes).
    Removing usb.o(i.USBDevEndpointStallClear), (92 bytes).
    Removing usb.o(i.USBDevEndpointStatusClear), (112 bytes).
    Removing usb.o(i.USBDevLPMConfig), (6 bytes).
    Removing usb.o(i.USBDevLPMDisable), (14 bytes).
    Removing usb.o(i.USBDevLPMEnable), (14 bytes).
    Removing usb.o(i.USBDevLPMRemoteWake), (14 bytes).
    Removing usb.o(i.USBDevMode), (8 bytes).
    Removing usb.o(i.USBDevSpeedGet), (18 bytes).
    Removing usb.o(i.USBEndpointDMAChannel), (34 bytes).
    Removing usb.o(i.USBEndpointDMAConfigSet), (112 bytes).
    Removing usb.o(i.USBEndpointDMADisable), (60 bytes).
    Removing usb.o(i.USBEndpointDMAEnable), (60 bytes).
    Removing usb.o(i.USBEndpointDataAvail), (34 bytes).
    Removing usb.o(i.USBEndpointDataGet), (82 bytes).
    Removing usb.o(i.USBEndpointDataPut), (54 bytes).
    Removing usb.o(i.USBEndpointDataSend), (58 bytes).
    Removing usb.o(i.USBEndpointDataToggleClear), (52 bytes).
    Removing usb.o(i.USBEndpointPacketCountSet), (18 bytes).
    Removing usb.o(i.USBEndpointStatus), (28 bytes).
    Removing usb.o(i.USBFIFOAddrGet), (12 bytes).
    Removing usb.o(i.USBFIFOConfigGet), (88 bytes).
    Removing usb.o(i.USBFIFOConfigSet), (92 bytes).
    Removing usb.o(i.USBFIFOFlush), (96 bytes).
    Removing usb.o(i.USBFrameNumberGet), (6 bytes).
    Removing usb.o(i.USBHighSpeed), (22 bytes).
    Removing usb.o(i.USBHostAddrGet), (32 bytes).
    Removing usb.o(i.USBHostAddrSet), (32 bytes).
    Removing usb.o(i.USBHostEndpointConfig), (298 bytes).
    Removing usb.o(i.USBHostEndpointDataAck), (40 bytes).
    Removing usb.o(i.USBHostEndpointDataToggle), (114 bytes).
    Removing usb.o(i.USBHostEndpointPing), (44 bytes).
    Removing usb.o(i.USBHostEndpointSpeed), (124 bytes).
    Removing usb.o(i.USBHostEndpointStatusClear), (56 bytes).
    Removing usb.o(i.USBHostHubAddrGet), (32 bytes).
    Removing usb.o(i.USBHostHubAddrSet), (68 bytes).
    Removing usb.o(i.USBHostLPMConfig), (22 bytes).
    Removing usb.o(i.USBHostLPMResume), (14 bytes).
    Removing usb.o(i.USBHostLPMSend), (36 bytes).
    Removing usb.o(i.USBHostMode), (8 bytes).
    Removing usb.o(i.USBHostPwrConfig), (24 bytes).
    Removing usb.o(i.USBHostPwrDisable), (14 bytes).
    Removing usb.o(i.USBHostPwrEnable), (14 bytes).
    Removing usb.o(i.USBHostPwrFaultDisable), (14 bytes).
    Removing usb.o(i.USBHostPwrFaultEnable), (14 bytes).
    Removing usb.o(i.USBHostRequestIN), (20 bytes).
    Removing usb.o(i.USBHostRequestINClear), (24 bytes).
    Removing usb.o(i.USBHostRequestStatus), (8 bytes).
    Removing usb.o(i.USBHostReset), (22 bytes).
    Removing usb.o(i.USBHostResume), (22 bytes).
    Removing usb.o(i.USBHostSpeedGet), (48 bytes).
    Removing usb.o(i.USBHostSuspend), (10 bytes).
    Removing usb.o(i.USBIntDisableControl), (40 bytes).
    Removing usb.o(i.USBIntDisableEndpoint), (20 bytes).
    Removing usb.o(i.USBIntEnableControl), (40 bytes).
    Removing usb.o(i.USBIntEnableEndpoint), (22 bytes).
    Removing usb.o(i.USBIntRegister), (30 bytes).
    Removing usb.o(i.USBIntStatusControl), (64 bytes).
    Removing usb.o(i.USBIntStatusEndpoint), (12 bytes).
    Removing usb.o(i.USBIntUnregister), (26 bytes).
    Removing usb.o(i.USBLPMEndpointGet), (12 bytes).
    Removing usb.o(i.USBLPMIntDisable), (12 bytes).
    Removing usb.o(i.USBLPMIntEnable), (12 bytes).
    Removing usb.o(i.USBLPMIntStatus), (8 bytes).
    Removing usb.o(i.USBLPMLinkStateGet), (12 bytes).
    Removing usb.o(i.USBLPMRemoteWakeEnabled), (20 bytes).
    Removing usb.o(i.USBModeConfig), (6 bytes).
    Removing usb.o(i.USBModeGet), (12 bytes).
    Removing usb.o(i.USBNumEndpointsGet), (12 bytes).
    Removing usb.o(i.USBOTGMode), (8 bytes).
    Removing usb.o(i.USBOTGSessionRequest), (30 bytes).
    Removing usb.o(i.USBPHYPowerOff), (10 bytes).
    Removing usb.o(i.USBPHYPowerOn), (10 bytes).
    Removing usb.o(i.USBULPIConfig), (6 bytes).
    Removing usb.o(i.USBULPIDisable), (14 bytes).
    Removing usb.o(i.USBULPIEnable), (14 bytes).
    Removing usb.o(i.USBULPIRegRead), (38 bytes).
    Removing usb.o(i.USBULPIRegWrite), (34 bytes).
    Removing usb.o(i._USBIndexRead), (22 bytes).
    Removing usb.o(i._USBIndexWrite), (22 bytes).
    Removing usb.o(i._USBIntNumberGet), (60 bytes).
    Removing watchdog.o(i.WatchdogEnable), (10 bytes).
    Removing watchdog.o(i.WatchdogIntClear), (6 bytes).
    Removing watchdog.o(i.WatchdogIntEnable), (10 bytes).
    Removing watchdog.o(i.WatchdogIntRegister), (22 bytes).
    Removing watchdog.o(i.WatchdogIntStatus), (12 bytes).
    Removing watchdog.o(i.WatchdogIntTypeSet), (12 bytes).
    Removing watchdog.o(i.WatchdogIntUnregister), (18 bytes).
    Removing watchdog.o(i.WatchdogLock), (8 bytes).
    Removing watchdog.o(i.WatchdogLockState), (16 bytes).
    Removing watchdog.o(i.WatchdogReloadGet), (6 bytes).
    Removing watchdog.o(i.WatchdogReloadSet), (4 bytes).
    Removing watchdog.o(i.WatchdogResetDisable), (10 bytes).
    Removing watchdog.o(i.WatchdogResetEnable), (10 bytes).
    Removing watchdog.o(i.WatchdogRunning), (10 bytes).
    Removing watchdog.o(i.WatchdogStallDisable), (14 bytes).
    Removing watchdog.o(i.WatchdogStallEnable), (14 bytes).
    Removing watchdog.o(i.WatchdogUnlock), (12 bytes).
    Removing watchdog.o(i.WatchdogValueGet), (6 bytes).
    Removing uartstdio.o(i.UARTgetc), (24 bytes).
    Removing uartstdio.o(i.UARTgets), (156 bytes).
    Removing uartstdio.o(i.UARTprintf), (26 bytes).
    Removing uartstdio.o(i.UARTvprintf), (592 bytes).
    Removing uartstdio.o(i.UARTwrite), (72 bytes).
    Removing uc1701.o(i.UC1701AllPixelOnDisable), (10 bytes).
    Removing uc1701.o(i.UC1701AllPixelOnEnable), (10 bytes).
    Removing uc1701.o(i.UC1701BRSet), (14 bytes).
    Removing uc1701.o(i.UC1701ChineseDispaly), (136 bytes).
    Removing uc1701.o(i.UC1701ComDirSet), (14 bytes).
    Removing uc1701.o(i.UC1701DisplayN), (100 bytes).
    Removing uc1701.o(i.UC1701DisplayOff), (10 bytes).
    Removing uc1701.o(i.UC1701DisplayOn), (10 bytes).
    Removing uc1701.o(i.UC1701DoubleCmdWrite), (100 bytes).
    Removing uc1701.o(i.UC1701InverseDisable), (12 bytes).
    Removing uc1701.o(i.UC1701InverseDispaly), (132 bytes).
    Removing uc1701.o(i.UC1701InverseEnable), (12 bytes).
    Removing uc1701.o(i.UC1701PMSet), (14 bytes).
    Removing uc1701.o(i.UC1701ScrollLineSet), (18 bytes).
    Removing uc1701.o(i.UC1701SegDirSet), (14 bytes).
    Removing pcf8575.o(i.Delay5us), (28 bytes).
    Removing pcf8575.o(i.I2C_Init), (52 bytes).
    Removing pcf8575.o(i.I2C_RecvACK), (76 bytes).
    Removing pcf8575.o(i.I2C_SendACK), (64 bytes).
    Removing pcf8575.o(i.I2C_SendByte), (84 bytes).
    Removing pcf8575.o(i.I2C_Start), (56 bytes).
    Removing pcf8575.o(i.I2C_Stop), (48 bytes).
    Removing pcf8575.o(i.IO_OUTPUT_SET), (32 bytes).
    Removing startup_rvmdk.o(HEAP), (0 bytes).
    Removing startup_rvmdk.o(.text), (0 bytes).
    Removing dmul.o(.text), (228 bytes).
    Removing dfltui.o(.text), (26 bytes).
    Removing dfixui.o(.text), (50 bytes).
    Removing dfixul.o(.text), (48 bytes).
    Removing cdrcmple.o(.text), (48 bytes).

959 unused section(s) (total 34452 bytes) removed from the image.

==============================================================================

Image Symbol Table

    Local Symbols

    Symbol Name                              Value     Ov Type        Size  Object(Section)

    RESET                                    0x00000000   Section      644  startup_rvmdk.o(RESET)
    ../clib/../cmprslib/zerorunl2.c          0x00000000   Number         0  __dczerorl2.o ABSOLUTE
    ../clib/microlib/division.c              0x00000000   Number         0  uldiv.o ABSOLUTE
    ../clib/microlib/division.c              0x00000000   Number         0  uidiv.o ABSOLUTE
    ../clib/microlib/errno.c                 0x00000000   Number         0  errno.o ABSOLUTE
    ../clib/microlib/init/entry.s            0x00000000   Number         0  entry12a.o ABSOLUTE
    ../clib/microlib/init/entry.s            0x00000000   Number         0  entry7a.o ABSOLUTE
    ../clib/microlib/init/entry.s            0x00000000   Number         0  entry11a.o ABSOLUTE
    ../clib/microlib/init/entry.s            0x00000000   Number         0  entry12b.o ABSOLUTE
    ../clib/microlib/init/entry.s            0x00000000   Number         0  entry10b.o ABSOLUTE
    ../clib/microlib/init/entry.s            0x00000000   Number         0  entry7b.o ABSOLUTE
    ../clib/microlib/init/entry.s            0x00000000   Number         0  entry8a.o ABSOLUTE
    ../clib/microlib/init/entry.s            0x00000000   Number         0  entry8b.o ABSOLUTE
    ../clib/microlib/init/entry.s            0x00000000   Number         0  entry11b.o ABSOLUTE
    ../clib/microlib/init/entry.s            0x00000000   Number         0  entry9a.o ABSOLUTE
    ../clib/microlib/init/entry.s            0x00000000   Number         0  entry.o ABSOLUTE
    ../clib/microlib/init/entry.s            0x00000000   Number         0  entry9b.o ABSOLUTE
    ../clib/microlib/init/entry.s            0x00000000   Number         0  entry10a.o ABSOLUTE
    ../clib/microlib/init/entry.s            0x00000000   Number         0  entry5.o ABSOLUTE
    ../clib/microlib/init/entry.s            0x00000000   Number         0  entry2.o ABSOLUTE
    ../clib/microlib/longlong.c              0x00000000   Number         0  llsshr.o ABSOLUTE
    ../clib/microlib/longlong.c              0x00000000   Number         0  llshl.o ABSOLUTE
    ../clib/microlib/longlong.c              0x00000000   Number         0  llushr.o ABSOLUTE
    ../clib/microlib/printf/printf.c         0x00000000   Number         0  printf1.o ABSOLUTE
    ../clib/microlib/printf/printf.c         0x00000000   Number         0  printf0.o ABSOLUTE
    ../clib/microlib/printf/printf.c         0x00000000   Number         0  printfb.o ABSOLUTE
    ../clib/microlib/printf/printf.c         0x00000000   Number         0  printf8.o ABSOLUTE
    ../clib/microlib/printf/printf.c         0x00000000   Number         0  printf4.o ABSOLUTE
    ../clib/microlib/printf/printf.c         0x00000000   Number         0  printfa.o ABSOLUTE
    ../clib/microlib/printf/printf.c         0x00000000   Number         0  printf7.o ABSOLUTE
    ../clib/microlib/printf/printf.c         0x00000000   Number         0  printf6.o ABSOLUTE
    ../clib/microlib/printf/printf.c         0x00000000   Number         0  printf5.o ABSOLUTE
    ../clib/microlib/printf/printf.c         0x00000000   Number         0  printf3.o ABSOLUTE
    ../clib/microlib/printf/printf.c         0x00000000   Number         0  printf2.o ABSOLUTE
    ../clib/microlib/printf/stubs.s          0x00000000   Number         0  stubs.o ABSOLUTE
    ../clib/microlib/stdio/fputc.c           0x00000000   Number         0  fputc.o ABSOLUTE
    ../clib/microlib/stdio/semi.s            0x00000000   Number         0  semi.o ABSOLUTE
    ../clib/microlib/stdio/streams.c         0x00000000   Number         0  stdout.o ABSOLUTE
    ../clib/microlib/stubs.s                 0x00000000   Number         0  iusefp.o ABSOLUTE
    ../clib/microlib/stubs.s                 0x00000000   Number         0  iusesemip.o ABSOLUTE
    ../fplib/microlib/fpadd.c                0x00000000   Number         0  dadd.o ABSOLUTE
    ../fplib/microlib/fpdiv.c                0x00000000   Number         0  ddiv.o ABSOLUTE
    ../fplib/microlib/fpepilogue.c           0x00000000   Number         0  depilogue.o ABSOLUTE
    ../fplib/microlib/fpfix.c                0x00000000   Number         0  dfixi.o ABSOLUTE
    ../fplib/microlib/fpfix.c                0x00000000   Number         0  dfixul.o ABSOLUTE
    ../fplib/microlib/fpfix.c                0x00000000   Number         0  dfixui.o ABSOLUTE
    ../fplib/microlib/fpflt.c                0x00000000   Number         0  dfltui.o ABSOLUTE
    ../fplib/microlib/fpflt.c                0x00000000   Number         0  dflti.o ABSOLUTE
    ../fplib/microlib/fpmul.c                0x00000000   Number         0  dmul.o ABSOLUTE
    ../fplib/microlib/fpsqrt.c               0x00000000   Number         0  dsqrt.o ABSOLUTE
    ../mathlib/sqrt.c                        0x00000000   Number         0  sqrt.o ABSOLUTE
    ../mathlib/sqrt.c                        0x00000000   Number         0  sqrt_x.o ABSOLUTE
    ..\CORE\startup_rvmdk.S                  0x00000000   Number         0  startup_rvmdk.o ABSOLUTE
    ..\LIB\driverlib\adc.c                   0x00000000   Number         0  adc_1.o ABSOLUTE
    ..\LIB\driverlib\aes.c                   0x00000000   Number         0  aes.o ABSOLUTE
    ..\LIB\driverlib\can.c                   0x00000000   Number         0  can.o ABSOLUTE
    ..\LIB\driverlib\comp.c                  0x00000000   Number         0  comp.o ABSOLUTE
    ..\LIB\driverlib\cpu.c                   0x00000000   Number         0  cpu.o ABSOLUTE
    ..\LIB\driverlib\crc.c                   0x00000000   Number         0  crc.o ABSOLUTE
    ..\LIB\driverlib\des.c                   0x00000000   Number         0  des.o ABSOLUTE
    ..\LIB\driverlib\eeprom.c                0x00000000   Number         0  eeprom.o ABSOLUTE
    ..\LIB\driverlib\emac.c                  0x00000000   Number         0  emac.o ABSOLUTE
    ..\LIB\driverlib\epi.c                   0x00000000   Number         0  epi.o ABSOLUTE
    ..\LIB\driverlib\flash.c                 0x00000000   Number         0  flash.o ABSOLUTE
    ..\LIB\driverlib\fpu.c                   0x00000000   Number         0  fpu.o ABSOLUTE
    ..\LIB\driverlib\gpio.c                  0x00000000   Number         0  gpio.o ABSOLUTE
    ..\LIB\driverlib\hibernate.c             0x00000000   Number         0  hibernate.o ABSOLUTE
    ..\LIB\driverlib\i2c.c                   0x00000000   Number         0  i2c.o ABSOLUTE
    ..\LIB\driverlib\interrupt.c             0x00000000   Number         0  interrupt.o ABSOLUTE
    ..\LIB\driverlib\lcd.c                   0x00000000   Number         0  lcd.o ABSOLUTE
    ..\LIB\driverlib\mpu.c                   0x00000000   Number         0  mpu.o ABSOLUTE
    ..\LIB\driverlib\onewire.c               0x00000000   Number         0  onewire.o ABSOLUTE
    ..\LIB\driverlib\pwm.c                   0x00000000   Number         0  pwm.o ABSOLUTE
    ..\LIB\driverlib\qei.c                   0x00000000   Number         0  qei.o ABSOLUTE
    ..\LIB\driverlib\shamd5.c                0x00000000   Number         0  shamd5.o ABSOLUTE
    ..\LIB\driverlib\ssi.c                   0x00000000   Number         0  ssi.o ABSOLUTE
    ..\LIB\driverlib\sw_crc.c                0x00000000   Number         0  sw_crc.o ABSOLUTE
    ..\LIB\driverlib\sysctl.c                0x00000000   Number         0  sysctl.o ABSOLUTE
    ..\LIB\driverlib\sysexc.c                0x00000000   Number         0  sysexc.o ABSOLUTE
    ..\LIB\driverlib\systick.c               0x00000000   Number         0  systick.o ABSOLUTE
    ..\LIB\driverlib\timer.c                 0x00000000   Number         0  timer.o ABSOLUTE
    ..\LIB\driverlib\uart.c                  0x00000000   Number         0  uart_1.o ABSOLUTE
    ..\LIB\driverlib\uartstdio.c             0x00000000   Number         0  uartstdio.o ABSOLUTE
    ..\LIB\driverlib\udma.c                  0x00000000   Number         0  udma.o ABSOLUTE
    ..\LIB\driverlib\usb.c                   0x00000000   Number         0  usb.o ABSOLUTE
    ..\LIB\driverlib\watchdog.c              0x00000000   Number         0  watchdog.o ABSOLUTE
    ..\LIB\iIC\pcf8575.c                     0x00000000   Number         0  pcf8575.o ABSOLUTE
    ..\LIB\screen\uc1701.c                   0x00000000   Number         0  uc1701.o ABSOLUTE
    ..\USER\ADG409BNZ.c                      0x00000000   Number         0  adg409bnz.o ABSOLUTE
    ..\USER\LED.c                            0x00000000   Number         0  led.o ABSOLUTE
    ..\USER\key.c                            0x00000000   Number         0  key.o ABSOLUTE
    ..\USER\lxy_ADC.c                        0x00000000   Number         0  lxy_adc.o ABSOLUTE
    ..\USER\lxy_PWM.c                        0x00000000   Number         0  lxy_pwm.o ABSOLUTE
    ..\USER\lxy_uart.c                       0x00000000   Number         0  lxy_uart.o ABSOLUTE
    ..\USER\main.c                           0x00000000   Number         0  main.o ABSOLUTE
    ..\USER\start.c                          0x00000000   Number         0  start.o ABSOLUTE
    ..\USER\time0.c                          0x00000000   Number         0  time0.o ABSOLUTE
    ..\\LIB\\driverlib\\cpu.c                0x00000000   Number         0  cpu.o ABSOLUTE
    ..\\LIB\\driverlib\\sysctl.c             0x00000000   Number         0  sysctl.o ABSOLUTE
    cdcmple.s                                0x00000000   Number         0  cdcmple.o ABSOLUTE
    cdrcmple.s                               0x00000000   Number         0  cdrcmple.o ABSOLUTE
    dc.s                                     0x00000000   Number         0  dc.o ABSOLUTE
    handlers.s                               0x00000000   Number         0  handlers.o ABSOLUTE
    init.s                                   0x00000000   Number         0  init.o ABSOLUTE
    $v0                                      0x00000268   Number         0  startup_rvmdk.o(RESET)
    NmiSR                                    0x0000027d   Thumb Code     0  startup_rvmdk.o(RESET)
    FaultISR                                 0x0000027f   Thumb Code     0  startup_rvmdk.o(RESET)
    IntDefaultHandler                        0x00000281   Thumb Code     0  startup_rvmdk.o(RESET)
    .ARM.Collect$$$$00000000                 0x00000284   Section        0  entry.o(.ARM.Collect$$$$00000000)
    .ARM.Collect$$$$00000001                 0x00000284   Section        4  entry2.o(.ARM.Collect$$$$00000001)
    .ARM.Collect$$$$00000004                 0x00000288   Section        4  entry5.o(.ARM.Collect$$$$00000004)
    .ARM.Collect$$$$00000008                 0x0000028c   Section        0  entry7b.o(.ARM.Collect$$$$00000008)
    .ARM.Collect$$$$0000000A                 0x0000028c   Section        0  entry8b.o(.ARM.Collect$$$$0000000A)
    .ARM.Collect$$$$0000000B                 0x0000028c   Section        8  entry9a.o(.ARM.Collect$$$$0000000B)
    .ARM.Collect$$$$0000000E                 0x00000294   Section        4  entry12b.o(.ARM.Collect$$$$0000000E)
    .ARM.Collect$$$$0000000F                 0x00000298   Section        0  entry10a.o(.ARM.Collect$$$$0000000F)
    .ARM.Collect$$$$00000011                 0x00000298   Section        0  entry11a.o(.ARM.Collect$$$$00000011)
    .ARM.Collect$$$$00002712                 0x00000298   Section        4  entry2.o(.ARM.Collect$$$$00002712)
    __lit__00000000                          0x00000298   Data           4  entry2.o(.ARM.Collect$$$$00002712)
    .emb_text                                0x0000029c   Section       38  cpu.o(.emb_text)
    $v0                                      0x0000029c   Number         0  cpu.o(.emb_text)
    .emb_text                                0x000002c4   Section        6  sysctl.o(.emb_text)
    $v0                                      0x000002c4   Number         0  sysctl.o(.emb_text)
    .text                                    0x000002ca   Section        0  dadd.o(.text)
    .text                                    0x00000418   Section        0  ddiv.o(.text)
    .text                                    0x000004f6   Section        0  dflti.o(.text)
    .text                                    0x00000518   Section        0  dfixi.o(.text)
    .text                                    0x00000558   Section       48  cdcmple.o(.text)
    .text                                    0x00000588   Section        0  uidiv.o(.text)
    .text                                    0x000005b4   Section        0  llshl.o(.text)
    .text                                    0x000005d2   Section        0  llushr.o(.text)
    .text                                    0x000005f2   Section        0  llsshr.o(.text)
    .text                                    0x00000616   Section        0  depilogue.o(.text)
    .text                                    0x00000616   Section        0  iusefp.o(.text)
    .text                                    0x000006d0   Section        0  dsqrt.o(.text)
    .text                                    0x00000774   Section       36  init.o(.text)
    .text                                    0x00000798   Section        0  __dczerorl2.o(.text)
    i.AC_1                                   0x000007f0   Section        0  main.o(i.AC_1)
    i.AC_2                                   0x000008c0   Section        0  main.o(i.AC_2)
    i.AC_3                                   0x00000970   Section        0  main.o(i.AC_3)
    i.ADCSequenceConfigure                   0x00000a34   Section        0  adc_1.o(i.ADCSequenceConfigure)
    i.ADCSequenceDataGet                     0x00000a82   Section        0  adc_1.o(i.ADCSequenceDataGet)
    i.ADCSequenceEnable                      0x00000aa4   Section        0  adc_1.o(i.ADCSequenceEnable)
    i.ADCSequenceStepConfigure               0x00000ab0   Section        0  adc_1.o(i.ADCSequenceStepConfigure)
    i.ADC_SS3_SET                            0x00000b38   Section        0  lxy_adc.o(i.ADC_SS3_SET)
    i.ADC_init_SS3                           0x00000b5c   Section        0  lxy_adc.o(i.ADC_init_SS3)
    i.DC_1                                   0x00000b94   Section        0  main.o(i.DC_1)
    i.DC_2                                   0x00000ce8   Section        0  main.o(i.DC_2)
    i.DC_3                                   0x00000e40   Section        0  main.o(i.DC_3)
    i.GPIODirModeSet                         0x00000f8c   Section        0  gpio.o(i.GPIODirModeSet)
    i.GPIOIntClear                           0x00000fbe   Section        0  gpio.o(i.GPIOIntClear)
    i.GPIOIntEnable                          0x00000fc4   Section        0  gpio.o(i.GPIOIntEnable)
    i.GPIOIntRegister                        0x00000fd0   Section        0  gpio.o(i.GPIOIntRegister)
    i.GPIOIntStatus                          0x00000fee   Section        0  gpio.o(i.GPIOIntStatus)
    i.GPIOIntTypeSet                         0x00000ffe   Section        0  gpio.o(i.GPIOIntTypeSet)
    i.GPIOPadConfigSet                       0x00001064   Section        0  gpio.o(i.GPIOPadConfigSet)
    i.GPIOPinConfigure                       0x000011f0   Section        0  gpio.o(i.GPIOPinConfigure)
    i.GPIOPinTypeADC                         0x00001240   Section        0  gpio.o(i.GPIOPinTypeADC)
    i.GPIOPinTypeGPIOInput                   0x0000125e   Section        0  gpio.o(i.GPIOPinTypeGPIOInput)
    i.GPIOPinTypeGPIOOutput                  0x0000127c   Section        0  gpio.o(i.GPIOPinTypeGPIOOutput)
    i.GPIOPinTypeSSI                         0x0000129a   Section        0  gpio.o(i.GPIOPinTypeSSI)
    i.GPIOPinTypeUART                        0x000012b8   Section        0  gpio.o(i.GPIOPinTypeUART)
    i.GPIOPinWrite                           0x000012d6   Section        0  gpio.o(i.GPIOPinWrite)
    i.IntEnable                              0x000012e0   Section        0  interrupt.o(i.IntEnable)
    i.IntMasterEnable                        0x00001354   Section        0  interrupt.o(i.IntMasterEnable)
    i.IntRegister                            0x00001364   Section        0  interrupt.o(i.IntRegister)
    i.R_1                                    0x000013a0   Section        0  main.o(i.R_1)
    i.R_2                                    0x00001438   Section        0  main.o(i.R_2)
    i.R_3                                    0x000014cc   Section        0  main.o(i.R_3)
    i.SSIBusy                                0x00001558   Section        0  ssi.o(i.SSIBusy)
    i.SSIConfigSetExpClk                     0x00001562   Section        0  ssi.o(i.SSIConfigSetExpClk)
    i.SSIDataPut                             0x000015b8   Section        0  ssi.o(i.SSIDataPut)
    i.SSIEnable                              0x000015c8   Section        0  ssi.o(i.SSIEnable)
    i.SysCtlClockGet                         0x000015d4   Section        0  sysctl.o(i.SysCtlClockGet)
    i.SysCtlClockSet                         0x00001740   Section        0  sysctl.o(i.SysCtlClockSet)
    i.SysCtlPWMClockSet                      0x0000186c   Section        0  sysctl.o(i.SysCtlPWMClockSet)
    i.SysCtlPeripheralEnable                 0x00001880   Section        0  sysctl.o(i.SysCtlPeripheralEnable)
    i.SysCtlPeripheralPowerOff               0x000018b4   Section        0  sysctl.o(i.SysCtlPeripheralPowerOff)
    i.TimerConfigure                         0x000018e8   Section        0  timer.o(i.TimerConfigure)
    i.TimerControlTrigger                    0x00001948   Section        0  timer.o(i.TimerControlTrigger)
    i.TimerEnable                            0x00001990   Section        0  timer.o(i.TimerEnable)
    i.UART0_INT                              0x000019a0   Section        0  lxy_uart.o(i.UART0_INT)
    i.UARTStdioConfig                        0x000019ec   Section        0  uartstdio.o(i.UARTStdioConfig)
    i.UC1701AddressSet                       0x00001a58   Section        0  uc1701.o(i.UC1701AddressSet)
    i.UC1701CharDispaly                      0x00001a82   Section        0  uc1701.o(i.UC1701CharDispaly)
    i.UC1701Clear                            0x00001ab6   Section        0  uc1701.o(i.UC1701Clear)
    i.UC1701CmdWrite                         0x00001af0   Section        0  uc1701.o(i.UC1701CmdWrite)
    i.UC1701DataWrite                        0x00001b38   Section        0  uc1701.o(i.UC1701DataWrite)
    i.UC1701Dispaly                          0x00001b80   Section        0  uc1701.o(i.UC1701Dispaly)
    i.UC1701Init                             0x00001bfc   Section        0  uc1701.o(i.UC1701Init)
    i._GPIOIntNumberGet                      0x00001cc8   Section        0  gpio.o(i._GPIOIntNumberGet)
    _GPIOIntNumberGet                        0x00001cc9   Thumb Code    56  gpio.o(i._GPIOIntNumberGet)
    i.__0sprintf$6                           0x00001d14   Section        0  printf6.o(i.__0sprintf$6)
    i.__hardfp_sqrt                          0x00001d3c   Section        0  sqrt.o(i.__hardfp_sqrt)
    i.__scatterload_copy                     0x00001db6   Section       14  handlers.o(i.__scatterload_copy)
    i.__scatterload_null                     0x00001dc4   Section        2  handlers.o(i.__scatterload_null)
    i.__scatterload_zeroinit                 0x00001dc6   Section       14  handlers.o(i.__scatterload_zeroinit)
    i.__set_errno                            0x00001dd4   Section        0  errno.o(i.__set_errno)
    i._printf_core                           0x00001de0   Section        0  printf6.o(i._printf_core)
    _printf_core                             0x00001de1   Thumb Code   748  printf6.o(i._printf_core)
    i._printf_post_padding                   0x000020d0   Section        0  printf6.o(i._printf_post_padding)
    _printf_post_padding                     0x000020d1   Thumb Code    36  printf6.o(i._printf_post_padding)
    i._printf_pre_padding                    0x000020f4   Section        0  printf6.o(i._printf_pre_padding)
    _printf_pre_padding                      0x000020f5   Thumb Code    46  printf6.o(i._printf_pre_padding)
    i._sputc                                 0x00002122   Section        0  printf6.o(i._sputc)
    _sputc                                   0x00002123   Thumb Code    10  printf6.o(i._sputc)
    i.delay_ms                               0x0000212c   Section        0  uc1701.o(i.delay_ms)
    delay_ms                                 0x0000212d   Thumb Code    26  uc1701.o(i.delay_ms)
    i.down1                                  0x00002148   Section        0  main.o(i.down1)
    i.enter1                                 0x00002184   Section        0  main.o(i.enter1)
    i.gpioinit                               0x000021c0   Section        0  main.o(i.gpioinit)
    i.init                                   0x000021ec   Section        0  main.o(i.init)
    i.key_INT                                0x00002240   Section        0  key.o(i.key_INT)
    i.key_enable                             0x000022cc   Section        0  key.o(i.key_enable)
    i.main                                   0x00002310   Section        0  main.o(i.main)
    i.secernprintf                           0x0000279c   Section        0  main.o(i.secernprintf)
    i.up1                                    0x000027d0   Section        0  main.o(i.up1)
    .constdata                               0x0000280c   Section      552  gpio.o(.constdata)
    g_ppui32GPIOIntMapBlizzard               0x0000280c   Data         192  gpio.o(.constdata)
    g_ppui32GPIOIntMapSnowflake              0x000028cc   Data         216  gpio.o(.constdata)
    g_pui32GPIOBaseAddrs                     0x000029a4   Data         144  gpio.o(.constdata)
    .constdata                               0x00002a34   Section      268  interrupt.o(.constdata)
    g_pui32Priority                          0x00002a34   Data          32  interrupt.o(.constdata)
    g_pui32Regs                              0x00002a54   Data         156  interrupt.o(.constdata)
    g_pui32EnRegs                            0x00002af0   Data          20  interrupt.o(.constdata)
    g_pui32Dii16Regs                         0x00002b04   Data          20  interrupt.o(.constdata)
    g_pui32PendRegs                          0x00002b18   Data          20  interrupt.o(.constdata)
    g_pui32UnpendRegs                        0x00002b2c   Data          20  interrupt.o(.constdata)
    .constdata                               0x00002b40   Section      596  sysctl.o(.constdata)
    g_pui32Xtals                             0x00002b40   Data         108  sysctl.o(.constdata)
    g_pppui32XTALtoVCO                       0x00002bac   Data         432  sysctl.o(.constdata)
    g_sXTALtoMEMTIM                          0x00002d5c   Data          48  sysctl.o(.constdata)
    g_pui32VCOFrequencies                    0x00002d8c   Data           8  sysctl.o(.constdata)
    .constdata                               0x00002d94   Section       28  uartstdio.o(.constdata)
    g_pcHex                                  0x00002d94   Data           4  uartstdio.o(.constdata)
    g_ui32UARTBase                           0x00002d98   Data          12  uartstdio.o(.constdata)
    g_ui32UARTPeriph                         0x00002da4   Data          12  uartstdio.o(.constdata)
    .conststring                             0x00002db0   Section       17  uartstdio.o(.conststring)
    .data                                    0x20000000   Section      484  main.o(.data)
    .data                                    0x200001e4   Section        5  uartstdio.o(.data)
    g_ui32Base                               0x200001e4   Data           4  uartstdio.o(.data)
    bLastWasCR                               0x200001e8   Data           1  uartstdio.o(.data)
    .data                                    0x200001e9   Section     1521  uc1701.o(.data)
    .data                                    0x200007dc   Section        4  errno.o(.data)
    _errno                                   0x200007dc   Data           4  errno.o(.data)
    vtable                                   0x20000800   Section      620  interrupt.o(vtable)
    g_pfnRAMVectors                          0x20000800   Data         620  interrupt.o(vtable)
    STACK                                    0x20000a70   Section      256  startup_rvmdk.o(STACK)
    StackMem                                 0x20000a70   Data           0  startup_rvmdk.o(STACK)

    Global Symbols

    Symbol Name                              Value     Ov Type        Size  Object(Section)

    BuildAttributes$$THM_ISAv4$E$P$D$K$B$S$7EM$VFPi3$EXTD16$VFPS$VFMA$PE$A:L22UL41UL21$X:L11$S22US41US21$IEEE1$IW$USESV6$~STKCKD$USESV7$~SHL$OTIME$ROPI$IEEEJ$EBA8$MICROLIB$REQ8$PRES8$EABIv2 0x00000000   Number         0  anon$$obj.o ABSOLUTE
    __ARM_use_no_argv                        0x00000000   Number         0  main.o ABSOLUTE
    __Vectors                                0x00000000   Data           0  startup_rvmdk.o(RESET)
    _printf_a                                0x00000000   Number         0  stubs.o ABSOLUTE
    _printf_c                                0x00000000   Number         0  stubs.o ABSOLUTE
    _printf_charcount                        0x00000000   Number         0  stubs.o ABSOLUTE
    _printf_d                                0x00000000   Number         0  stubs.o ABSOLUTE
    _printf_e                                0x00000000   Number         0  stubs.o ABSOLUTE
    _printf_f                                0x00000000   Number         0  stubs.o ABSOLUTE
    _printf_flags                            0x00000000   Number         0  stubs.o ABSOLUTE
    _printf_fp_dec                           0x00000000   Number         0  stubs.o ABSOLUTE
    _printf_fp_hex                           0x00000000   Number         0  stubs.o ABSOLUTE
    _printf_g                                0x00000000   Number         0  stubs.o ABSOLUTE
    _printf_i                                0x00000000   Number         0  stubs.o ABSOLUTE
    _printf_int_dec                          0x00000000   Number         0  stubs.o ABSOLUTE
    _printf_l                                0x00000000   Number         0  stubs.o ABSOLUTE
    _printf_lc                               0x00000000   Number         0  stubs.o ABSOLUTE
    _printf_ll                               0x00000000   Number         0  stubs.o ABSOLUTE
    _printf_lld                              0x00000000   Number         0  stubs.o ABSOLUTE
    _printf_lli                              0x00000000   Number         0  stubs.o ABSOLUTE
    _printf_llo                              0x00000000   Number         0  stubs.o ABSOLUTE
    _printf_llu                              0x00000000   Number         0  stubs.o ABSOLUTE
    _printf_llx                              0x00000000   Number         0  stubs.o ABSOLUTE
    _printf_longlong_dec                     0x00000000   Number         0  stubs.o ABSOLUTE
    _printf_longlong_hex                     0x00000000   Number         0  stubs.o ABSOLUTE
    _printf_longlong_oct                     0x00000000   Number         0  stubs.o ABSOLUTE
    _printf_ls                               0x00000000   Number         0  stubs.o ABSOLUTE
    _printf_mbtowc                           0x00000000   Number         0  stubs.o ABSOLUTE
    _printf_n                                0x00000000   Number         0  stubs.o ABSOLUTE
    _printf_o                                0x00000000   Number         0  stubs.o ABSOLUTE
    _printf_p                                0x00000000   Number         0  stubs.o ABSOLUTE
    _printf_percent                          0x00000000   Number         0  stubs.o ABSOLUTE
    _printf_pre_padding                      0x00000000   Number         0  stubs.o ABSOLUTE
    _printf_return_value                     0x00000000   Number         0  stubs.o ABSOLUTE
    _printf_s                                0x00000000   Number         0  stubs.o ABSOLUTE
    _printf_sizespec                         0x00000000   Number         0  stubs.o ABSOLUTE
    _printf_str                              0x00000000   Number         0  stubs.o ABSOLUTE
    _printf_truncate_signed                  0x00000000   Number         0  stubs.o ABSOLUTE
    _printf_truncate_unsigned                0x00000000   Number         0  stubs.o ABSOLUTE
    _printf_u                                0x00000000   Number         0  stubs.o ABSOLUTE
    _printf_wc                               0x00000000   Number         0  stubs.o ABSOLUTE
    _printf_wctomb                           0x00000000   Number         0  stubs.o ABSOLUTE
    _printf_widthprec                        0x00000000   Number         0  stubs.o ABSOLUTE
    _printf_x                                0x00000000   Number         0  stubs.o ABSOLUTE
    __arm_fini_                               - Undefined Weak Reference
    __cpp_initialize__aeabi_                  - Undefined Weak Reference
    __cxa_finalize                            - Undefined Weak Reference
    _clock_init                               - Undefined Weak Reference
    _microlib_exit                            - Undefined Weak Reference
    Reset_Handler                            0x00000269   Thumb Code     0  startup_rvmdk.o(RESET)
    __main                                   0x00000285   Thumb Code     0  entry.o(.ARM.Collect$$$$00000000)
    _main_stk                                0x00000285   Thumb Code     0  entry2.o(.ARM.Collect$$$$00000001)
    _main_scatterload                        0x00000289   Thumb Code     0  entry5.o(.ARM.Collect$$$$00000004)
    __main_after_scatterload                 0x0000028d   Thumb Code     0  entry5.o(.ARM.Collect$$$$00000004)
    _main_clock                              0x0000028d   Thumb Code     0  entry7b.o(.ARM.Collect$$$$00000008)
    _main_cpp_init                           0x0000028d   Thumb Code     0  entry8b.o(.ARM.Collect$$$$0000000A)
    _main_init                               0x0000028d   Thumb Code     0  entry9a.o(.ARM.Collect$$$$0000000B)
    __rt_lib_shutdown_fini                   0x00000295   Thumb Code     0  entry12b.o(.ARM.Collect$$$$0000000E)
    __rt_final_cpp                           0x00000299   Thumb Code     0  entry10a.o(.ARM.Collect$$$$0000000F)
    __rt_final_exit                          0x00000299   Thumb Code     0  entry11a.o(.ARM.Collect$$$$00000011)
    CPUcpsid                                 0x0000029d   Thumb Code     8  cpu.o(.emb_text)
    CPUprimask                               0x000002a5   Thumb Code     6  cpu.o(.emb_text)
    CPUcpsie                                 0x000002ab   Thumb Code     8  cpu.o(.emb_text)
    CPUwfi                                   0x000002b3   Thumb Code     4  cpu.o(.emb_text)
    CPUbasepriSet                            0x000002b7   Thumb Code     6  cpu.o(.emb_text)
    CPUbasepriGet                            0x000002bd   Thumb Code     6  cpu.o(.emb_text)
    SysCtlDelay                              0x000002c5   Thumb Code     6  sysctl.o(.emb_text)
    __aeabi_dadd                             0x000002cb   Thumb Code   322  dadd.o(.text)
    __aeabi_dsub                             0x0000040d   Thumb Code     6  dadd.o(.text)
    __aeabi_drsub                            0x00000413   Thumb Code     6  dadd.o(.text)
    __aeabi_ddiv                             0x00000419   Thumb Code   222  ddiv.o(.text)
    __aeabi_i2d                              0x000004f7   Thumb Code    34  dflti.o(.text)
    __aeabi_d2iz                             0x00000519   Thumb Code    62  dfixi.o(.text)
    __aeabi_cdcmpeq                          0x00000559   Thumb Code     0  cdcmple.o(.text)
    __aeabi_cdcmple                          0x00000559   Thumb Code    48  cdcmple.o(.text)
    __aeabi_uidiv                            0x00000589   Thumb Code     0  uidiv.o(.text)
    __aeabi_uidivmod                         0x00000589   Thumb Code    44  uidiv.o(.text)
    __aeabi_llsl                             0x000005b5   Thumb Code    30  llshl.o(.text)
    _ll_shift_l                              0x000005b5   Thumb Code     0  llshl.o(.text)
    __aeabi_llsr                             0x000005d3   Thumb Code    32  llushr.o(.text)
    _ll_ushift_r                             0x000005d3   Thumb Code     0  llushr.o(.text)
    __aeabi_lasr                             0x000005f3   Thumb Code    36  llsshr.o(.text)
    _ll_sshift_r                             0x000005f3   Thumb Code     0  llsshr.o(.text)
    __I$use$fp                               0x00000617   Thumb Code     0  iusefp.o(.text)
    _double_round                            0x00000617   Thumb Code    30  depilogue.o(.text)
    _double_epilogue                         0x00000635   Thumb Code   156  depilogue.o(.text)
    _dsqrt                                   0x000006d1   Thumb Code   162  dsqrt.o(.text)
    __scatterload                            0x00000775   Thumb Code    28  init.o(.text)
    __scatterload_rt2                        0x00000775   Thumb Code     0  init.o(.text)
    __decompress                             0x00000799   Thumb Code     0  __dczerorl2.o(.text)
    __decompress1                            0x00000799   Thumb Code    86  __dczerorl2.o(.text)
    AC_1                                     0x000007f1   Thumb Code   178  main.o(i.AC_1)
    AC_2                                     0x000008c1   Thumb Code   146  main.o(i.AC_2)
    AC_3                                     0x00000971   Thumb Code   166  main.o(i.AC_3)
    ADCSequenceConfigure                     0x00000a35   Thumb Code    78  adc_1.o(i.ADCSequenceConfigure)
    ADCSequenceDataGet                       0x00000a83   Thumb Code    34  adc_1.o(i.ADCSequenceDataGet)
    ADCSequenceEnable                        0x00000aa5   Thumb Code    12  adc_1.o(i.ADCSequenceEnable)
    ADCSequenceStepConfigure                 0x00000ab1   Thumb Code   136  adc_1.o(i.ADCSequenceStepConfigure)
    ADC_SS3_SET                              0x00000b39   Thumb Code    32  lxy_adc.o(i.ADC_SS3_SET)
    ADC_init_SS3                             0x00000b5d   Thumb Code    42  lxy_adc.o(i.ADC_init_SS3)
    DC_1                                     0x00000b95   Thumb Code   274  main.o(i.DC_1)
    DC_2                                     0x00000ce9   Thumb Code   278  main.o(i.DC_2)
    DC_3                                     0x00000e41   Thumb Code   262  main.o(i.DC_3)
    GPIODirModeSet                           0x00000f8d   Thumb Code    50  gpio.o(i.GPIODirModeSet)
    GPIOIntClear                             0x00000fbf   Thumb Code     6  gpio.o(i.GPIOIntClear)
    GPIOIntEnable                            0x00000fc5   Thumb Code    12  gpio.o(i.GPIOIntEnable)
    GPIOIntRegister                          0x00000fd1   Thumb Code    30  gpio.o(i.GPIOIntRegister)
    GPIOIntStatus                            0x00000fef   Thumb Code    16  gpio.o(i.GPIOIntStatus)
    GPIOIntTypeSet                           0x00000fff   Thumb Code   102  gpio.o(i.GPIOIntTypeSet)
    GPIOPadConfigSet                         0x00001065   Thumb Code   384  gpio.o(i.GPIOPadConfigSet)
    GPIOPinConfigure                         0x000011f1   Thumb Code    70  gpio.o(i.GPIOPinConfigure)
    GPIOPinTypeADC                           0x00001241   Thumb Code    30  gpio.o(i.GPIOPinTypeADC)
    GPIOPinTypeGPIOInput                     0x0000125f   Thumb Code    30  gpio.o(i.GPIOPinTypeGPIOInput)
    GPIOPinTypeGPIOOutput                    0x0000127d   Thumb Code    30  gpio.o(i.GPIOPinTypeGPIOOutput)
    GPIOPinTypeSSI                           0x0000129b   Thumb Code    30  gpio.o(i.GPIOPinTypeSSI)
    GPIOPinTypeUART                          0x000012b9   Thumb Code    30  gpio.o(i.GPIOPinTypeUART)
    GPIOPinWrite                             0x000012d7   Thumb Code    10  gpio.o(i.GPIOPinWrite)
    IntEnable                                0x000012e1   Thumb Code   108  interrupt.o(i.IntEnable)
    IntMasterEnable                          0x00001355   Thumb Code    16  interrupt.o(i.IntMasterEnable)
    IntRegister                              0x00001365   Thumb Code    52  interrupt.o(i.IntRegister)
    R_1                                      0x000013a1   Thumb Code   132  main.o(i.R_1)
    R_2                                      0x00001439   Thumb Code   132  main.o(i.R_2)
    R_3                                      0x000014cd   Thumb Code   120  main.o(i.R_3)
    SSIBusy                                  0x00001559   Thumb Code    10  ssi.o(i.SSIBusy)
    SSIConfigSetExpClk                       0x00001563   Thumb Code    86  ssi.o(i.SSIConfigSetExpClk)
    SSIDataPut                               0x000015b9   Thumb Code    16  ssi.o(i.SSIDataPut)
    SSIEnable                                0x000015c9   Thumb Code    10  ssi.o(i.SSIEnable)
    SysCtlClockGet                           0x000015d5   Thumb Code   324  sysctl.o(i.SysCtlClockGet)
    SysCtlClockSet                           0x00001741   Thumb Code   280  sysctl.o(i.SysCtlClockSet)
    SysCtlPWMClockSet                        0x0000186d   Thumb Code    16  sysctl.o(i.SysCtlPWMClockSet)
    SysCtlPeripheralEnable                   0x00001881   Thumb Code    46  sysctl.o(i.SysCtlPeripheralEnable)
    SysCtlPeripheralPowerOff                 0x000018b5   Thumb Code    46  sysctl.o(i.SysCtlPeripheralPowerOff)
    TimerConfigure                           0x000018e9   Thumb Code    84  timer.o(i.TimerConfigure)
    TimerControlTrigger                      0x00001949   Thumb Code    60  timer.o(i.TimerControlTrigger)
    TimerEnable                              0x00001991   Thumb Code    14  timer.o(i.TimerEnable)
    UART0_INT                                0x000019a1   Thumb Code    68  lxy_uart.o(i.UART0_INT)
    UARTStdioConfig                          0x000019ed   Thumb Code    96  uartstdio.o(i.UARTStdioConfig)
    UC1701AddressSet                         0x00001a59   Thumb Code    42  uc1701.o(i.UC1701AddressSet)
    UC1701CharDispaly                        0x00001a83   Thumb Code    52  uc1701.o(i.UC1701CharDispaly)
    UC1701Clear                              0x00001ab7   Thumb Code    56  uc1701.o(i.UC1701Clear)
    UC1701CmdWrite                           0x00001af1   Thumb Code    62  uc1701.o(i.UC1701CmdWrite)
    UC1701DataWrite                          0x00001b39   Thumb Code    62  uc1701.o(i.UC1701DataWrite)
    UC1701Dispaly                            0x00001b81   Thumb Code   120  uc1701.o(i.UC1701Dispaly)
    UC1701Init                               0x00001bfd   Thumb Code   180  uc1701.o(i.UC1701Init)
    __0sprintf$6                             0x00001d15   Thumb Code    34  printf6.o(i.__0sprintf$6)
    __1sprintf$6                             0x00001d15   Thumb Code     0  printf6.o(i.__0sprintf$6)
    __2sprintf                               0x00001d15   Thumb Code     0  printf6.o(i.__0sprintf$6)
    __hardfp_sqrt                            0x00001d3d   Thumb Code   122  sqrt.o(i.__hardfp_sqrt)
    __scatterload_copy                       0x00001db7   Thumb Code    14  handlers.o(i.__scatterload_copy)
    __scatterload_null                       0x00001dc5   Thumb Code     2  handlers.o(i.__scatterload_null)
    __scatterload_zeroinit                   0x00001dc7   Thumb Code    14  handlers.o(i.__scatterload_zeroinit)
    __set_errno                              0x00001dd5   Thumb Code     6  errno.o(i.__set_errno)
    down1                                    0x00002149   Thumb Code    46  main.o(i.down1)
    enter1                                   0x00002185   Thumb Code    50  main.o(i.enter1)
    gpioinit                                 0x000021c1   Thumb Code    36  main.o(i.gpioinit)
    init                                     0x000021ed   Thumb Code    66  main.o(i.init)
    key_INT                                  0x00002241   Thumb Code   120  key.o(i.key_INT)
    key_enable                               0x000022cd   Thumb Code    60  key.o(i.key_enable)
    main                                     0x00002311   Thumb Code   940  main.o(i.main)
    secernprintf                             0x0000279d   Thumb Code    44  main.o(i.secernprintf)
    up1                                      0x000027d1   Thumb Code    46  main.o(i.up1)
    Region$$Table$$Base                      0x00002dc4   Number         0  anon$$obj.o(Region$$Table)
    Region$$Table$$Limit                     0x00002de4   Number         0  anon$$obj.o(Region$$Table)
    i                                        0x20000000   Data           4  main.o(.data)
    key_table                                0x20000004   Data         480  main.o(.data)
    Ascii                                    0x200001e9   Data        1520  uc1701.o(.data)
    inverse_factor                           0x200007d9   Data           1  uc1701.o(.data)
    __initial_sp                             0x20000b70   Data           0  startup_rvmdk.o(STACK)



==============================================================================

Memory Map of the image

  Image Entry point : 0x00000285

  Load Region LR_IROM1 (Base: 0x00000000, Size: 0x00003850, Max: 0x00040000, ABSOLUTE, COMPRESSED[0x00003170])

    Execution Region ER_IROM1 (Exec base: 0x00000000, Load base: 0x00000000, Size: 0x00002de4, Max: 0x00040000, ABSOLUTE)

    Exec Addr    Load Addr    Size         Type   Attr      Idx    E Section Name        Object

    0x00000000   0x00000000   0x00000284   Code   RO         6613    RESET               startup_rvmdk.o
    0x00000284   0x00000284   0x00000000   Code   RO         6629  * .ARM.Collect$$$$00000000  mc_w.l(entry.o)
    0x00000284   0x00000284   0x00000004   Code   RO         6909    .ARM.Collect$$$$00000001  mc_w.l(entry2.o)
    0x00000288   0x00000288   0x00000004   Code   RO         6912    .ARM.Collect$$$$00000004  mc_w.l(entry5.o)
    0x0000028c   0x0000028c   0x00000000   Code   RO         6914    .ARM.Collect$$$$00000008  mc_w.l(entry7b.o)
    0x0000028c   0x0000028c   0x00000000   Code   RO         6916    .ARM.Collect$$$$0000000A  mc_w.l(entry8b.o)
    0x0000028c   0x0000028c   0x00000008   Code   RO         6917    .ARM.Collect$$$$0000000B  mc_w.l(entry9a.o)
    0x00000294   0x00000294   0x00000004   Code   RO         6924    .ARM.Collect$$$$0000000E  mc_w.l(entry12b.o)
    0x00000298   0x00000298   0x00000000   Code   RO         6919    .ARM.Collect$$$$0000000F  mc_w.l(entry10a.o)
    0x00000298   0x00000298   0x00000000   Code   RO         6921    .ARM.Collect$$$$00000011  mc_w.l(entry11a.o)
    0x00000298   0x00000298   0x00000004   Code   RO         6910    .ARM.Collect$$$$00002712  mc_w.l(entry2.o)
    0x0000029c   0x0000029c   0x00000026   Code   RO         1067    .emb_text           cpu.o
    0x000002c2   0x000002c2   0x00000002   PAD
    0x000002c4   0x000002c4   0x00000006   Code   RO         4428    .emb_text           sysctl.o
    0x000002ca   0x000002ca   0x0000014e   Code   RO         6893    .text               mf_w.l(dadd.o)
    0x00000418   0x00000418   0x000000de   Code   RO         6897    .text               mf_w.l(ddiv.o)
    0x000004f6   0x000004f6   0x00000022   Code   RO         6899    .text               mf_w.l(dflti.o)
    0x00000518   0x00000518   0x0000003e   Code   RO         6903    .text               mf_w.l(dfixi.o)
    0x00000556   0x00000556   0x00000002   PAD
    0x00000558   0x00000558   0x00000030   Code   RO         6907    .text               mf_w.l(cdcmple.o)
    0x00000588   0x00000588   0x0000002c   Code   RO         6928    .text               mc_w.l(uidiv.o)
    0x000005b4   0x000005b4   0x0000001e   Code   RO         6932    .text               mc_w.l(llshl.o)
    0x000005d2   0x000005d2   0x00000020   Code   RO         6934    .text               mc_w.l(llushr.o)
    0x000005f2   0x000005f2   0x00000024   Code   RO         6936    .text               mc_w.l(llsshr.o)
    0x00000616   0x00000616   0x00000000   Code   RO         6945    .text               mc_w.l(iusefp.o)
    0x00000616   0x00000616   0x000000ba   Code   RO         6946    .text               mf_w.l(depilogue.o)
    0x000006d0   0x000006d0   0x000000a2   Code   RO         6948    .text               mf_w.l(dsqrt.o)
    0x00000772   0x00000772   0x00000002   PAD
    0x00000774   0x00000774   0x00000024   Code   RO         6954    .text               mc_w.l(init.o)
    0x00000798   0x00000798   0x00000056   Code   RO         6966    .text               mc_w.l(__dczerorl2.o)
    0x000007ee   0x000007ee   0x00000002   PAD
    0x000007f0   0x000007f0   0x000000d0   Code   RO            1    i.AC_1              main.o
    0x000008c0   0x000008c0   0x000000b0   Code   RO            2    i.AC_2              main.o
    0x00000970   0x00000970   0x000000c4   Code   RO            3    i.AC_3              main.o
    0x00000a34   0x00000a34   0x0000004e   Code   RO          466    i.ADCSequenceConfigure  adc_1.o
    0x00000a82   0x00000a82   0x00000022   Code   RO          469    i.ADCSequenceDataGet  adc_1.o
    0x00000aa4   0x00000aa4   0x0000000c   Code   RO          471    i.ADCSequenceEnable  adc_1.o
    0x00000ab0   0x00000ab0   0x00000088   Code   RO          474    i.ADCSequenceStepConfigure  adc_1.o
    0x00000b38   0x00000b38   0x00000024   Code   RO          313    i.ADC_SS3_SET       lxy_adc.o
    0x00000b5c   0x00000b5c   0x00000038   Code   RO          317    i.ADC_init_SS3      lxy_adc.o
    0x00000b94   0x00000b94   0x00000154   Code   RO            4    i.DC_1              main.o
    0x00000ce8   0x00000ce8   0x00000158   Code   RO            5    i.DC_2              main.o
    0x00000e40   0x00000e40   0x0000014c   Code   RO            6    i.DC_3              main.o
    0x00000f8c   0x00000f8c   0x00000032   Code   RO         2277    i.GPIODirModeSet    gpio.o
    0x00000fbe   0x00000fbe   0x00000006   Code   RO         2278    i.GPIOIntClear      gpio.o
    0x00000fc4   0x00000fc4   0x0000000c   Code   RO         2280    i.GPIOIntEnable     gpio.o
    0x00000fd0   0x00000fd0   0x0000001e   Code   RO         2281    i.GPIOIntRegister   gpio.o
    0x00000fee   0x00000fee   0x00000010   Code   RO         2283    i.GPIOIntStatus     gpio.o
    0x00000ffe   0x00000ffe   0x00000066   Code   RO         2285    i.GPIOIntTypeSet    gpio.o
    0x00001064   0x00001064   0x0000018c   Code   RO         2289    i.GPIOPadConfigSet  gpio.o
    0x000011f0   0x000011f0   0x00000050   Code   RO         2290    i.GPIOPinConfigure  gpio.o
    0x00001240   0x00001240   0x0000001e   Code   RO         2292    i.GPIOPinTypeADC    gpio.o
    0x0000125e   0x0000125e   0x0000001e   Code   RO         2300    i.GPIOPinTypeGPIOInput  gpio.o
    0x0000127c   0x0000127c   0x0000001e   Code   RO         2301    i.GPIOPinTypeGPIOOutput  gpio.o
    0x0000129a   0x0000129a   0x0000001e   Code   RO         2310    i.GPIOPinTypeSSI    gpio.o
    0x000012b8   0x000012b8   0x0000001e   Code   RO         2313    i.GPIOPinTypeUART   gpio.o
    0x000012d6   0x000012d6   0x0000000a   Code   RO         2319    i.GPIOPinWrite      gpio.o
    0x000012e0   0x000012e0   0x00000074   Code   RO         3259    i.IntEnable         interrupt.o
    0x00001354   0x00001354   0x00000010   Code   RO         3262    i.IntMasterEnable   interrupt.o
    0x00001364   0x00001364   0x0000003c   Code   RO         3271    i.IntRegister       interrupt.o
    0x000013a0   0x000013a0   0x00000098   Code   RO            7    i.R_1               main.o
    0x00001438   0x00001438   0x00000094   Code   RO            8    i.R_2               main.o
    0x000014cc   0x000014cc   0x0000008c   Code   RO            9    i.R_3               main.o
    0x00001558   0x00001558   0x0000000a   Code   RO         4229    i.SSIBusy           ssi.o
    0x00001562   0x00001562   0x00000056   Code   RO         4232    i.SSIConfigSetExpClk  ssi.o
    0x000015b8   0x000015b8   0x00000010   Code   RO         4237    i.SSIDataPut        ssi.o
    0x000015c8   0x000015c8   0x0000000a   Code   RO         4240    i.SSIEnable         ssi.o
    0x000015d2   0x000015d2   0x00000002   PAD
    0x000015d4   0x000015d4   0x0000016c   Code   RO         4431    i.SysCtlClockGet    sysctl.o
    0x00001740   0x00001740   0x0000012c   Code   RO         4433    i.SysCtlClockSet    sysctl.o
    0x0000186c   0x0000186c   0x00000014   Code   RO         4457    i.SysCtlPWMClockSet  sysctl.o
    0x00001880   0x00001880   0x00000034   Code   RO         4462    i.SysCtlPeripheralEnable  sysctl.o
    0x000018b4   0x000018b4   0x00000034   Code   RO         4463    i.SysCtlPeripheralPowerOff  sysctl.o
    0x000018e8   0x000018e8   0x00000060   Code   RO         4894    i.TimerConfigure    timer.o
    0x00001948   0x00001948   0x00000048   Code   RO         4898    i.TimerControlTrigger  timer.o
    0x00001990   0x00001990   0x0000000e   Code   RO         4903    i.TimerEnable       timer.o
    0x0000199e   0x0000199e   0x00000002   PAD
    0x000019a0   0x000019a0   0x0000004c   Code   RO          416    i.UART0_INT         lxy_uart.o
    0x000019ec   0x000019ec   0x0000006c   Code   RO         6347    i.UARTStdioConfig   uartstdio.o
    0x00001a58   0x00001a58   0x0000002a   Code   RO         6393    i.UC1701AddressSet  uc1701.o
    0x00001a82   0x00001a82   0x00000034   Code   RO         6397    i.UC1701CharDispaly  uc1701.o
    0x00001ab6   0x00001ab6   0x00000038   Code   RO         6399    i.UC1701Clear       uc1701.o
    0x00001aee   0x00001aee   0x00000002   PAD
    0x00001af0   0x00001af0   0x00000048   Code   RO         6400    i.UC1701CmdWrite    uc1701.o
    0x00001b38   0x00001b38   0x00000048   Code   RO         6402    i.UC1701DataWrite   uc1701.o
    0x00001b80   0x00001b80   0x0000007c   Code   RO         6403    i.UC1701Dispaly     uc1701.o
    0x00001bfc   0x00001bfc   0x000000cc   Code   RO         6408    i.UC1701Init        uc1701.o
    0x00001cc8   0x00001cc8   0x0000004c   Code   RO         2321    i._GPIOIntNumberGet  gpio.o
    0x00001d14   0x00001d14   0x00000028   Code   RO         6789    i.__0sprintf$6      mc_w.l(printf6.o)
    0x00001d3c   0x00001d3c   0x0000007a   Code   RO         6617    i.__hardfp_sqrt     m_wm.l(sqrt.o)
    0x00001db6   0x00001db6   0x0000000e   Code   RO         6960    i.__scatterload_copy  mc_w.l(handlers.o)
    0x00001dc4   0x00001dc4   0x00000002   Code   RO         6961    i.__scatterload_null  mc_w.l(handlers.o)
    0x00001dc6   0x00001dc6   0x0000000e   Code   RO         6962    i.__scatterload_zeroinit  mc_w.l(handlers.o)
    0x00001dd4   0x00001dd4   0x0000000c   Code   RO         6940    i.__set_errno       mc_w.l(errno.o)
    0x00001de0   0x00001de0   0x000002f0   Code   RO         6794    i._printf_core      mc_w.l(printf6.o)
    0x000020d0   0x000020d0   0x00000024   Code   RO         6795    i._printf_post_padding  mc_w.l(printf6.o)
    0x000020f4   0x000020f4   0x0000002e   Code   RO         6796    i._printf_pre_padding  mc_w.l(printf6.o)
    0x00002122   0x00002122   0x0000000a   Code   RO         6798    i._sputc            mc_w.l(printf6.o)
    0x0000212c   0x0000212c   0x0000001a   Code   RO         6415    i.delay_ms          uc1701.o
    0x00002146   0x00002146   0x00000002   PAD
    0x00002148   0x00002148   0x0000003c   Code   RO           10    i.down1             main.o
    0x00002184   0x00002184   0x0000003c   Code   RO           11    i.enter1            main.o
    0x000021c0   0x000021c0   0x0000002c   Code   RO           12    i.gpioinit          main.o
    0x000021ec   0x000021ec   0x00000054   Code   RO           13    i.init              main.o
    0x00002240   0x00002240   0x0000008c   Code   RO          266    i.key_INT           key.o
    0x000022cc   0x000022cc   0x00000044   Code   RO          267    i.key_enable        key.o
    0x00002310   0x00002310   0x0000048c   Code   RO           14    i.main              main.o
    0x0000279c   0x0000279c   0x00000034   Code   RO           15    i.secernprintf      main.o
    0x000027d0   0x000027d0   0x0000003c   Code   RO           16    i.up1               main.o
    0x0000280c   0x0000280c   0x00000228   Data   RO         2322    .constdata          gpio.o
    0x00002a34   0x00002a34   0x0000010c   Data   RO         3275    .constdata          interrupt.o
    0x00002b40   0x00002b40   0x00000254   Data   RO         4486    .constdata          sysctl.o
    0x00002d94   0x00002d94   0x0000001c   Data   RO         6353    .constdata          uartstdio.o
    0x00002db0   0x00002db0   0x00000011   Data   RO         6354    .conststring        uartstdio.o
    0x00002dc1   0x00002dc1   0x00000003   PAD
    0x00002dc4   0x00002dc4   0x00000020   Data   RO         6958    Region$$Table       anon$$obj.o


    Execution Region RW_IRAM1 (Exec base: 0x20000000, Load base: 0x00002de4, Size: 0x00000b70, Max: 0x00008000, ABSOLUTE, COMPRESSED[0x0000038c])

    Exec Addr    Load Addr    Size         Type   Attr      Idx    E Section Name        Object

    0x20000000   COMPRESSED   0x000001e4   Data   RW           17    .data               main.o
    0x200001e4   COMPRESSED   0x00000005   Data   RW         6355    .data               uartstdio.o
    0x200001e9   COMPRESSED   0x000005f1   Data   RW         6416    .data               uc1701.o
    0x200007da   COMPRESSED   0x00000002   PAD
    0x200007dc   COMPRESSED   0x00000004   Data   RW         6941    .data               mc_w.l(errno.o)
    0x200007e0   COMPRESSED   0x00000020   PAD
    0x20000800   COMPRESSED   0x0000026c   Data   RW         3276    vtable              interrupt.o
    0x20000a6c   COMPRESSED   0x00000004   PAD
    0x20000a70        -       0x00000100   Zero   RW         6611    STACK               startup_rvmdk.o


==============================================================================

Image component sizes


      Code (inc. data)   RO Data    RW Data    ZI Data      Debug   Object Name

       260          0          0          0          0       4091   adc_1.o
        38          0          0          0          0        648   cpu.o
       928         42        552          0          0      11319   gpio.o
       192         16        268        620          0       3120   interrupt.o
       208         28          0          0          0       1111   key.o
        92         18          0          0          0       1169   lxy_adc.o
        76          8          0          0          0        536   lxy_uart.o
      3560        672          0        484          0      18057   main.o
       122          0          0          0          0       2684   ssi.o
       644        618          0          0        256        288   startup_rvmdk.o
       794         76        596          0          0       5882   sysctl.o
       182         24          0          0          0       1973   timer.o
       108         12         45          5          0       2641   uartstdio.o
       648         48          0       1521          0       6552   uc1701.o

    ----------------------------------------------------------------------
      7862       1562       1496       2632        260      60071   Object Totals
         0          0         32          0          0          0   (incl. Generated)
        10          0          3          2          4          0   (incl. Padding)

    ----------------------------------------------------------------------

      Code (inc. data)   RO Data    RW Data    ZI Data      Debug   Library Member Name

       122          0          0          0          0        148   sqrt.o
        86          0          0          0          0          0   __dczerorl2.o
         0          0          0          0          0          0   entry.o
         0          0          0          0          0          0   entry10a.o
         0          0          0          0          0          0   entry11a.o
         4          0          0          0          0          0   entry12b.o
         8          4          0          0          0          0   entry2.o
         4          0          0          0          0          0   entry5.o
         0          0          0          0          0          0   entry7b.o
         0          0          0          0          0          0   entry8b.o
         8          4          0          0          0          0   entry9a.o
        12          6          0          4          0         68   errno.o
        30          0          0          0          0          0   handlers.o
        36          8          0          0          0         68   init.o
         0          0          0          0          0          0   iusefp.o
        30          0          0          0          0         68   llshl.o
        36          0          0          0          0         68   llsshr.o
        32          0          0          0          0         68   llushr.o
       884         10          0          0          0        420   printf6.o
        44          0          0          0          0         80   uidiv.o
        48          0          0          0          0         68   cdcmple.o
       334          0          0          0          0        148   dadd.o
       222          0          0          0          0        100   ddiv.o
       186          0          0          0          0        176   depilogue.o
        62          0          0          0          0         80   dfixi.o
        34          0          0          0          0         76   dflti.o
       162          0          0          0          0        100   dsqrt.o

    ----------------------------------------------------------------------
      2390         32          0         36          0       1736   Library Totals
         6          0          0         32          0          0   (incl. Padding)

    ----------------------------------------------------------------------

      Code (inc. data)   RO Data    RW Data    ZI Data      Debug   Library Name

       122          0          0          0          0        148   m_wm.l
      1214         32          0          4          0        840   mc_w.l
      1048          0          0          0          0        748   mf_w.l

    ----------------------------------------------------------------------
      2390         32          0         36          0       1736   Library Totals

    ----------------------------------------------------------------------

==============================================================================


      Code (inc. data)   RO Data    RW Data    ZI Data      Debug   

     10252       1594       1496       2668        260      55111   Grand Totals
     10252       1594       1496        908        260      55111   ELF Image Totals (compressed)
     10252       1594       1496        908          0          0   ROM Totals

==============================================================================

    Total RO  Size (Code + RO Data)                11748 (  11.47kB)
    Total RW  Size (RW Data + ZI Data)              2928 (   2.86kB)
    Total ROM Size (Code + RO Data + RW Data)      12656 (  12.36kB)

==============================================================================

